ccopy_reg
_reconstructor
p1
(cnav_msgs.msg._OccupancyGrid
OccupancyGrid
p2
c__builtin__
object
p3
NtRp4
(lp5
g1
(cstd_msgs.msg._Header
Header
p6
g3
NtRp7
(lp8
I0
ag1
(cgenpy.rostime
Time
p9
g3
NtRp10
(lp11
I1561287951
aI456989638
abaS'odom'
p12
abag1
(cnav_msgs.msg._MapMetaData
MapMetaData
p13
g3
NtRp14
(lp15
g1
(g9
g3
NtRp16
(lp17
I0
aI0
abaF0.05000000074505806
aI119
aI119
ag1
(cgeometry_msgs.msg._Pose
Pose
p18
g3
NtRp19
(lp20
g1
(cgeometry_msgs.msg._Point
Point
p21
g3
NtRp22
(lp23
F-3.2000000000000002
aF-4.0499999999999998
aF0
abag1
(cgeometry_msgs.msg._Quaternion
Quaternion
p24
g3
NtRp25
(lp26
F0
aF0
aF0
aF1
abababa(I0
I0
I0
I0
I0
I0
I0
I0
I0
I0
I0
I0
I0
I0
I0
I0
I0
I0
I0
I0
I0
I0
I0
I0
I0
I0
I0
I0
I0
I0
I0
I0
I0
I0
I0
I0
I0
I0
I0
I0
I0
I0
I0
I0
I0
I0
I0
I0
I0
I0
I0
I0
I0
I0
I0
I0
I0
I0
I0
I0
I0
I0
I0
I0
I0
I0
I0
I0
I0
I0
I0
I0
I0
I0
I0
I0
I0
I0
I0
I0
I0
I0
I0
I0
I0
I0
I0
I0
I0
I0
I0
I0
I0
I0
I0
I0
I0
I0
I0
I0
I0
I0
I0
I0
I0
I0
I0
I0
I0
I0
I0
I0
I0
I0
I0
I0
I0
I0
I0
I0
I0
I0
I0
I0
I0
I0
I0
I0
I0
I0
I0
I0
I0
I0
I0
I0
I0
I0
I0
I0
I0
I0
I0
I0
I0
I0
I0
I0
I0
I0
I0
I0
I0
I0
I0
I0
I0
I0
I0
I0
I0
I0
I0
I0
I0
I0
I0
I0
I0
I0
I0
I0
I0
I0
I0
I0
I0
I0
I0
I0
I0
I0
I0
I0
I0
I0
I0
I0
I0
I0
I0
I0
I0
I0
I0
I0
I0
I0
I0
I0
I0
I0
I0
I0
I0
I0
I0
I0
I0
I0
I0
I0
I0
I0
I0
I0
I0
I0
I0
I0
I0
I0
I0
I0
I0
I0
I0
I0
I0
I0
I0
I0
I0
I0
I0
I0
I0
I0
I0
I0
I0
I0
I0
I0
I0
I0
I0
I0
I0
I0
I0
I0
I0
I0
I0
I0
I0
I0
I0
I0
I0
I0
I0
I0
I0
I0
I0
I0
I0
I0
I0
I0
I0
I0
I0
I0
I0
I0
I0
I0
I0
I0
I0
I0
I0
I0
I0
I0
I0
I0
I0
I0
I0
I0
I0
I0
I0
I0
I0
I0
I0
I0
I0
I0
I0
I0
I0
I0
I0
I0
I0
I0
I0
I0
I0
I0
I0
I0
I0
I0
I0
I0
I0
I0
I0
I0
I0
I0
I0
I0
I0
I0
I0
I0
I0
I0
I0
I0
I0
I0
I0
I0
I0
I0
I0
I0
I0
I0
I0
I0
I0
I0
I0
I0
I0
I0
I0
I0
I0
I0
I0
I0
I0
I0
I0
I0
I0
I0
I0
I0
I0
I0
I0
I0
I0
I0
I0
I0
I0
I0
I0
I0
I0
I0
I0
I0
I0
I0
I0
I0
I0
I0
I0
I0
I0
I0
I0
I0
I0
I0
I0
I0
I0
I0
I0
I0
I0
I0
I0
I0
I0
I0
I0
I0
I0
I0
I0
I0
I0
I0
I0
I0
I0
I0
I0
I0
I0
I0
I0
I0
I0
I0
I0
I0
I0
I0
I0
I0
I0
I0
I0
I0
I0
I0
I0
I0
I0
I0
I0
I0
I0
I0
I0
I0
I0
I0
I0
I0
I0
I0
I0
I0
I0
I0
I0
I0
I0
I0
I0
I0
I0
I0
I0
I0
I0
I0
I0
I0
I0
I0
I0
I0
I0
I0
I0
I0
I0
I0
I0
I0
I0
I0
I0
I0
I0
I0
I0
I0
I0
I0
I0
I0
I0
I0
I0
I0
I0
I0
I0
I0
I0
I0
I0
I0
I0
I0
I0
I0
I0
I0
I0
I0
I0
I0
I0
I0
I0
I0
I0
I0
I0
I0
I0
I0
I0
I0
I0
I0
I0
I0
I0
I0
I0
I0
I0
I0
I0
I0
I0
I0
I0
I0
I0
I0
I0
I0
I0
I0
I0
I0
I0
I0
I0
I0
I0
I0
I0
I0
I0
I0
I0
I0
I0
I0
I0
I0
I0
I0
I0
I0
I0
I0
I0
I0
I0
I0
I0
I0
I0
I0
I0
I0
I0
I0
I0
I0
I0
I0
I0
I0
I0
I0
I0
I0
I0
I0
I0
I0
I0
I0
I0
I0
I0
I0
I0
I0
I0
I0
I0
I0
I0
I0
I0
I0
I0
I0
I0
I0
I0
I0
I0
I0
I0
I0
I0
I0
I0
I0
I0
I0
I0
I0
I0
I0
I0
I0
I0
I0
I0
I0
I0
I0
I0
I0
I0
I0
I0
I0
I0
I0
I0
I0
I0
I0
I0
I0
I0
I0
I0
I0
I0
I0
I0
I0
I0
I0
I0
I0
I0
I0
I0
I0
I0
I0
I0
I0
I0
I0
I0
I0
I0
I0
I0
I0
I0
I0
I0
I0
I0
I0
I0
I0
I0
I0
I0
I0
I0
I0
I0
I0
I0
I0
I0
I0
I0
I0
I0
I0
I0
I0
I0
I0
I0
I0
I0
I0
I0
I0
I0
I0
I0
I0
I0
I0
I0
I0
I0
I0
I0
I0
I0
I0
I0
I0
I0
I0
I0
I0
I0
I0
I0
I0
I0
I0
I0
I0
I0
I0
I0
I0
I0
I0
I0
I0
I0
I0
I0
I0
I0
I0
I0
I0
I0
I0
I0
I0
I0
I0
I0
I0
I0
I0
I0
I0
I0
I0
I0
I0
I0
I0
I0
I0
I0
I0
I0
I0
I0
I0
I0
I0
I0
I0
I0
I0
I0
I0
I0
I0
I0
I0
I0
I0
I0
I0
I0
I0
I0
I0
I0
I0
I0
I0
I0
I0
I0
I0
I0
I0
I0
I0
I0
I0
I0
I0
I0
I0
I0
I0
I0
I0
I0
I0
I0
I0
I0
I0
I0
I0
I0
I0
I0
I0
I0
I0
I0
I0
I0
I0
I0
I0
I0
I0
I0
I0
I0
I0
I0
I0
I0
I0
I0
I0
I0
I0
I0
I0
I0
I0
I0
I0
I0
I0
I0
I0
I0
I0
I0
I0
I0
I0
I0
I0
I0
I0
I0
I0
I0
I0
I0
I0
I0
I0
I0
I0
I0
I0
I0
I0
I0
I0
I0
I0
I0
I0
I0
I0
I0
I0
I0
I0
I0
I0
I0
I0
I0
I0
I0
I0
I0
I0
I0
I0
I0
I0
I0
I0
I0
I0
I0
I0
I0
I0
I0
I0
I0
I0
I0
I0
I0
I0
I0
I0
I0
I0
I0
I0
I0
I0
I0
I0
I0
I0
I0
I0
I0
I0
I0
I0
I0
I0
I0
I0
I0
I0
I0
I0
I0
I0
I0
I0
I0
I0
I0
I0
I0
I0
I0
I0
I0
I0
I0
I0
I0
I0
I0
I0
I0
I0
I0
I0
I0
I0
I0
I0
I0
I0
I0
I0
I0
I0
I0
I0
I0
I0
I0
I0
I0
I0
I0
I0
I0
I0
I0
I0
I0
I0
I0
I0
I0
I0
I0
I0
I0
I0
I0
I0
I0
I0
I0
I0
I0
I0
I0
I0
I0
I0
I0
I0
I0
I0
I0
I0
I0
I0
I0
I0
I0
I0
I0
I0
I0
I0
I0
I0
I0
I0
I0
I0
I0
I0
I0
I0
I0
I0
I0
I0
I0
I0
I0
I0
I0
I0
I0
I0
I0
I0
I0
I0
I0
I0
I0
I0
I0
I0
I0
I0
I0
I0
I0
I0
I0
I0
I0
I0
I0
I0
I0
I0
I0
I0
I0
I0
I0
I0
I0
I0
I0
I0
I0
I0
I0
I0
I0
I0
I0
I0
I0
I0
I0
I0
I0
I0
I0
I0
I0
I0
I0
I0
I0
I0
I0
I0
I0
I0
I0
I0
I0
I0
I0
I0
I0
I0
I0
I0
I0
I0
I0
I0
I0
I0
I0
I0
I0
I0
I0
I0
I0
I0
I0
I0
I0
I0
I0
I0
I0
I0
I0
I0
I0
I0
I0
I0
I0
I0
I0
I0
I0
I0
I0
I0
I0
I0
I0
I0
I0
I0
I0
I0
I0
I0
I0
I0
I0
I0
I0
I0
I0
I0
I0
I0
I0
I0
I0
I0
I0
I0
I0
I0
I0
I0
I0
I0
I0
I0
I0
I0
I0
I0
I0
I0
I0
I0
I0
I0
I0
I0
I0
I0
I0
I0
I0
I0
I0
I0
I0
I0
I0
I0
I0
I0
I0
I0
I0
I0
I0
I0
I0
I0
I0
I0
I0
I0
I0
I0
I0
I0
I0
I0
I0
I0
I0
I0
I0
I0
I0
I0
I0
I0
I0
I0
I0
I0
I0
I0
I0
I0
I0
I0
I0
I0
I0
I0
I0
I0
I0
I0
I0
I0
I0
I0
I0
I0
I0
I0
I0
I0
I0
I0
I0
I0
I0
I0
I0
I0
I0
I0
I0
I0
I0
I0
I0
I0
I0
I0
I0
I0
I0
I0
I0
I0
I0
I0
I0
I0
I0
I0
I0
I0
I0
I0
I0
I0
I0
I0
I0
I0
I0
I0
I0
I0
I0
I0
I0
I0
I0
I0
I0
I0
I0
I0
I0
I0
I0
I0
I0
I0
I0
I0
I0
I0
I0
I0
I0
I0
I0
I0
I0
I0
I0
I0
I0
I0
I0
I0
I0
I0
I0
I0
I0
I0
I0
I0
I0
I0
I0
I0
I0
I0
I0
I0
I0
I0
I0
I0
I0
I0
I0
I0
I0
I0
I0
I0
I0
I0
I0
I0
I0
I0
I0
I0
I0
I0
I0
I0
I0
I0
I0
I0
I0
I0
I0
I0
I0
I0
I0
I0
I0
I0
I0
I0
I0
I0
I0
I0
I0
I0
I0
I0
I0
I0
I0
I0
I0
I0
I0
I0
I0
I0
I0
I0
I0
I0
I0
I0
I0
I0
I0
I0
I0
I0
I0
I0
I0
I0
I0
I0
I0
I0
I0
I0
I0
I0
I0
I0
I0
I0
I0
I0
I0
I0
I0
I0
I0
I0
I0
I0
I0
I0
I0
I0
I0
I0
I0
I0
I0
I0
I0
I0
I0
I0
I0
I0
I0
I0
I0
I0
I0
I0
I0
I0
I0
I0
I0
I0
I0
I0
I0
I0
I0
I0
I0
I0
I0
I0
I0
I0
I0
I0
I0
I0
I0
I0
I0
I0
I0
I0
I0
I0
I0
I0
I0
I0
I0
I0
I0
I0
I0
I0
I0
I0
I0
I0
I0
I0
I0
I0
I0
I0
I0
I0
I0
I0
I0
I0
I0
I0
I0
I0
I0
I0
I0
I0
I0
I0
I0
I0
I0
I0
I0
I0
I0
I0
I0
I0
I0
I0
I0
I0
I0
I0
I0
I0
I0
I0
I0
I0
I0
I0
I0
I0
I0
I0
I0
I0
I0
I0
I0
I0
I0
I0
I0
I0
I0
I0
I0
I0
I0
I0
I0
I0
I0
I0
I0
I0
I0
I0
I0
I0
I0
I0
I0
I0
I0
I0
I0
I0
I0
I0
I0
I0
I0
I0
I0
I0
I0
I0
I0
I0
I0
I0
I0
I0
I0
I0
I0
I0
I0
I0
I0
I0
I0
I0
I0
I0
I0
I0
I0
I0
I0
I0
I0
I0
I0
I0
I0
I0
I0
I0
I0
I0
I0
I0
I0
I0
I0
I0
I0
I0
I0
I0
I0
I0
I0
I0
I0
I0
I0
I0
I0
I0
I0
I0
I0
I0
I0
I0
I0
I0
I0
I0
I0
I0
I0
I0
I0
I0
I0
I0
I0
I0
I0
I0
I0
I0
I0
I0
I0
I0
I0
I0
I0
I0
I0
I0
I0
I0
I0
I0
I0
I0
I0
I0
I0
I0
I0
I0
I0
I0
I0
I0
I0
I0
I0
I0
I0
I0
I0
I0
I0
I0
I0
I0
I0
I0
I0
I0
I0
I0
I0
I0
I0
I0
I0
I0
I0
I0
I0
I0
I0
I0
I0
I0
I0
I0
I0
I0
I0
I0
I0
I0
I0
I0
I0
I0
I0
I0
I0
I0
I0
I0
I0
I0
I0
I0
I0
I0
I0
I0
I0
I0
I0
I0
I0
I0
I0
I0
I0
I0
I0
I0
I0
I0
I0
I0
I0
I0
I0
I0
I0
I0
I0
I0
I0
I0
I0
I0
I0
I0
I0
I0
I0
I0
I0
I0
I0
I0
I0
I0
I0
I0
I0
I0
I0
I0
I0
I0
I0
I0
I0
I0
I0
I0
I0
I0
I0
I0
I0
I0
I0
I0
I0
I0
I0
I0
I0
I0
I0
I0
I0
I0
I0
I0
I0
I0
I0
I0
I0
I0
I0
I0
I0
I0
I0
I0
I0
I0
I0
I0
I0
I0
I0
I0
I0
I0
I0
I0
I0
I0
I0
I0
I0
I0
I0
I0
I0
I0
I0
I0
I0
I0
I0
I0
I0
I0
I0
I0
I0
I0
I0
I0
I0
I0
I0
I0
I0
I0
I0
I0
I0
I0
I0
I0
I0
I0
I0
I0
I0
I0
I0
I0
I0
I0
I0
I0
I0
I0
I0
I0
I0
I0
I0
I0
I0
I0
I0
I0
I0
I0
I0
I0
I0
I0
I0
I0
I0
I0
I0
I0
I0
I0
I0
I0
I0
I0
I0
I0
I0
I0
I0
I0
I0
I0
I0
I0
I0
I0
I0
I0
I0
I0
I0
I0
I0
I0
I0
I0
I0
I0
I0
I0
I0
I0
I0
I0
I0
I0
I0
I0
I0
I0
I0
I0
I0
I0
I0
I0
I0
I0
I0
I0
I0
I0
I0
I0
I0
I0
I0
I0
I0
I0
I0
I0
I0
I0
I0
I0
I0
I0
I0
I0
I0
I0
I0
I0
I0
I0
I0
I0
I0
I0
I0
I0
I0
I0
I0
I0
I0
I0
I0
I0
I0
I0
I0
I0
I0
I0
I0
I0
I0
I0
I0
I0
I0
I0
I0
I0
I0
I0
I0
I0
I0
I0
I0
I0
I0
I0
I0
I0
I0
I0
I0
I0
I0
I0
I0
I0
I0
I0
I0
I0
I0
I0
I0
I0
I0
I0
I0
I0
I0
I0
I0
I0
I0
I0
I0
I0
I0
I0
I0
I0
I0
I0
I0
I0
I0
I0
I0
I0
I0
I0
I0
I0
I0
I0
I0
I0
I0
I0
I0
I0
I0
I0
I0
I0
I0
I0
I0
I0
I0
I0
I0
I0
I0
I0
I0
I0
I0
I0
I0
I0
I0
I0
I0
I0
I0
I0
I0
I0
I0
I0
I0
I0
I0
I0
I0
I0
I0
I0
I0
I0
I0
I0
I0
I0
I0
I0
I0
I0
I0
I0
I0
I0
I0
I0
I0
I0
I0
I0
I0
I0
I0
I0
I0
I0
I0
I0
I0
I0
I0
I0
I0
I0
I0
I0
I0
I0
I0
I0
I0
I0
I0
I0
I0
I0
I0
I0
I0
I0
I0
I0
I0
I0
I0
I0
I0
I0
I0
I0
I0
I0
I0
I0
I0
I0
I0
I0
I0
I0
I0
I0
I0
I0
I0
I0
I0
I0
I0
I0
I0
I0
I0
I0
I0
I0
I0
I0
I0
I0
I0
I0
I0
I0
I0
I0
I0
I0
I0
I0
I0
I0
I0
I0
I0
I0
I0
I0
I0
I0
I0
I0
I0
I0
I0
I0
I0
I0
I0
I0
I0
I0
I0
I0
I0
I0
I0
I0
I0
I0
I0
I0
I0
I0
I0
I0
I0
I0
I0
I0
I0
I0
I0
I0
I0
I0
I0
I0
I0
I0
I0
I0
I0
I0
I0
I0
I0
I0
I0
I0
I0
I0
I0
I0
I0
I0
I0
I0
I0
I0
I0
I0
I0
I0
I0
I0
I0
I0
I0
I0
I0
I0
I0
I0
I0
I0
I0
I0
I0
I0
I0
I0
I0
I0
I0
I0
I0
I0
I0
I0
I0
I0
I0
I0
I0
I0
I0
I0
I0
I0
I0
I0
I0
I0
I0
I0
I0
I0
I0
I0
I0
I0
I0
I0
I0
I0
I0
I0
I0
I0
I0
I0
I0
I0
I0
I0
I0
I0
I0
I0
I0
I0
I0
I0
I0
I0
I0
I0
I0
I0
I0
I0
I0
I0
I0
I0
I0
I0
I0
I0
I0
I0
I0
I0
I0
I0
I0
I0
I0
I0
I0
I0
I0
I0
I0
I0
I0
I0
I0
I0
I0
I0
I0
I0
I0
I0
I0
I0
I0
I0
I0
I0
I0
I0
I0
I0
I0
I0
I0
I0
I0
I0
I0
I0
I0
I0
I0
I0
I0
I0
I0
I0
I0
I0
I0
I0
I0
I0
I0
I0
I0
I0
I0
I0
I0
I0
I0
I0
I0
I0
I0
I0
I0
I0
I0
I0
I0
I0
I0
I0
I0
I0
I0
I0
I0
I0
I0
I0
I0
I0
I0
I0
I0
I0
I0
I0
I0
I0
I0
I0
I0
I0
I0
I0
I0
I0
I0
I0
I0
I0
I0
I0
I0
I0
I0
I0
I0
I0
I0
I0
I0
I0
I0
I0
I0
I0
I0
I0
I0
I0
I0
I0
I0
I0
I0
I0
I0
I0
I0
I0
I0
I0
I0
I0
I0
I0
I0
I0
I0
I0
I0
I0
I0
I0
I0
I0
I0
I0
I0
I0
I0
I0
I0
I0
I0
I0
I0
I0
I0
I0
I0
I0
I0
I0
I0
I0
I0
I0
I0
I0
I0
I0
I0
I0
I0
I0
I0
I0
I0
I0
I0
I0
I0
I0
I0
I0
I0
I0
I0
I0
I0
I0
I0
I0
I0
I0
I0
I0
I0
I0
I0
I0
I0
I0
I0
I0
I0
I0
I0
I0
I0
I0
I0
I0
I0
I0
I0
I0
I0
I0
I0
I0
I0
I0
I0
I0
I0
I0
I0
I0
I0
I0
I0
I0
I0
I0
I0
I0
I0
I0
I0
I0
I0
I0
I0
I0
I0
I0
I0
I0
I0
I0
I0
I0
I0
I0
I0
I0
I0
I0
I0
I0
I0
I0
I0
I0
I0
I0
I0
I0
I0
I0
I0
I0
I0
I0
I0
I0
I0
I0
I0
I0
I0
I0
I0
I0
I0
I0
I0
I0
I0
I0
I0
I0
I0
I0
I0
I0
I0
I0
I0
I0
I0
I0
I0
I0
I0
I0
I0
I0
I0
I0
I0
I0
I0
I0
I0
I0
I0
I0
I0
I0
I0
I0
I0
I0
I0
I0
I0
I0
I0
I0
I0
I0
I0
I0
I0
I0
I0
I0
I0
I0
I0
I0
I0
I0
I0
I0
I0
I0
I0
I0
I0
I0
I0
I0
I0
I0
I0
I0
I0
I0
I0
I0
I0
I0
I0
I0
I0
I0
I0
I0
I0
I0
I0
I0
I0
I0
I0
I0
I0
I0
I0
I0
I0
I0
I0
I0
I0
I0
I0
I0
I0
I0
I0
I0
I0
I0
I0
I0
I0
I0
I0
I0
I0
I0
I0
I0
I0
I0
I0
I0
I0
I0
I0
I0
I0
I0
I0
I0
I0
I0
I0
I0
I0
I0
I0
I0
I0
I0
I0
I0
I0
I0
I0
I0
I0
I0
I0
I0
I0
I0
I0
I0
I0
I0
I0
I0
I0
I0
I0
I0
I0
I0
I0
I0
I0
I0
I0
I0
I0
I0
I0
I0
I0
I0
I0
I0
I0
I0
I0
I0
I0
I0
I0
I0
I0
I0
I0
I0
I0
I0
I0
I0
I0
I0
I0
I0
I0
I0
I0
I0
I0
I0
I0
I0
I0
I0
I0
I0
I0
I0
I0
I0
I0
I0
I0
I0
I0
I0
I0
I0
I0
I0
I0
I0
I0
I0
I0
I0
I0
I0
I0
I0
I0
I0
I0
I0
I0
I0
I0
I0
I0
I0
I0
I0
I0
I0
I0
I0
I0
I0
I0
I0
I0
I0
I0
I0
I0
I0
I0
I0
I0
I0
I0
I0
I0
I0
I0
I0
I0
I0
I0
I0
I0
I0
I0
I0
I0
I0
I0
I0
I0
I0
I0
I0
I0
I0
I0
I0
I0
I0
I0
I0
I0
I0
I0
I0
I0
I0
I0
I0
I0
I0
I0
I0
I0
I0
I0
I0
I0
I0
I0
I0
I0
I0
I0
I0
I0
I0
I0
I0
I0
I0
I0
I0
I0
I0
I0
I0
I0
I0
I0
I0
I0
I0
I0
I0
I0
I0
I0
I0
I0
I0
I0
I0
I0
I0
I0
I0
I0
I0
I0
I0
I0
I0
I0
I0
I0
I0
I0
I0
I0
I0
I0
I0
I0
I0
I0
I0
I0
I0
I0
I0
I0
I0
I0
I0
I0
I0
I0
I0
I0
I0
I0
I0
I0
I0
I0
I0
I0
I0
I0
I0
I0
I0
I0
I0
I0
I0
I0
I0
I0
I0
I0
I0
I0
I0
I0
I0
I0
I0
I0
I0
I0
I0
I0
I0
I0
I0
I0
I0
I0
I0
I0
I0
I0
I0
I0
I0
I0
I0
I0
I0
I0
I0
I0
I0
I0
I0
I0
I0
I0
I0
I0
I0
I0
I0
I0
I0
I0
I0
I0
I0
I0
I0
I0
I0
I0
I0
I0
I0
I0
I0
I0
I0
I0
I0
I0
I0
I0
I0
I0
I0
I0
I0
I0
I0
I0
I0
I0
I0
I0
I0
I0
I0
I0
I0
I0
I0
I0
I0
I0
I0
I0
I0
I0
I0
I0
I0
I0
I0
I0
I0
I0
I0
I0
I0
I0
I0
I0
I0
I0
I0
I0
I0
I0
I0
I0
I0
I0
I0
I0
I0
I0
I0
I0
I0
I0
I0
I0
I0
I0
I0
I0
I0
I0
I0
I0
I0
I0
I0
I0
I0
I0
I0
I0
I0
I0
I0
I0
I0
I0
I0
I0
I0
I0
I0
I0
I0
I0
I0
I0
I0
I0
I0
I0
I0
I0
I0
I0
I0
I0
I0
I0
I0
I0
I0
I0
I0
I0
I0
I0
I0
I0
I0
I0
I0
I0
I0
I0
I0
I0
I0
I0
I0
I0
I0
I0
I0
I0
I0
I0
I0
I0
I0
I0
I0
I0
I99
I0
I0
I99
I0
I0
I0
I0
I0
I0
I0
I99
I0
I99
I0
I0
I0
I0
I0
I0
I0
I0
I0
I0
I0
I0
I0
I0
I0
I0
I0
I0
I0
I0
I0
I0
I0
I0
I0
I0
I0
I0
I0
I0
I0
I0
I0
I0
I0
I0
I0
I0
I0
I0
I0
I0
I0
I0
I0
I0
I0
I0
I0
I0
I0
I0
I0
I0
I0
I0
I0
I0
I0
I0
I0
I0
I0
I0
I0
I0
I0
I0
I0
I0
I0
I0
I0
I0
I0
I0
I0
I0
I0
I0
I0
I0
I0
I0
I0
I0
I0
I0
I0
I0
I0
I0
I0
I0
I0
I0
I0
I0
I0
I0
I0
I0
I0
I0
I99
I99
I99
I99
I99
I99
I0
I0
I0
I0
I0
I99
I99
I99
I99
I99
I0
I0
I0
I0
I0
I0
I0
I0
I0
I0
I0
I0
I0
I0
I0
I0
I0
I0
I0
I0
I0
I0
I0
I0
I0
I0
I0
I0
I0
I0
I0
I0
I0
I0
I0
I0
I0
I0
I0
I0
I0
I0
I0
I0
I0
I0
I0
I0
I0
I0
I0
I0
I0
I0
I0
I0
I0
I0
I0
I0
I0
I0
I0
I0
I0
I0
I0
I0
I0
I0
I0
I0
I0
I0
I0
I0
I0
I0
I0
I0
I0
I0
I0
I0
I0
I0
I0
I0
I0
I0
I0
I0
I0
I0
I0
I0
I0
I0
I0
I0
I0
I0
I99
I99
I100
I99
I99
I100
I99
I99
I0
I0
I0
I99
I99
I100
I99
I100
I99
I99
I0
I0
I0
I0
I0
I0
I0
I0
I0
I0
I0
I0
I0
I0
I0
I0
I0
I0
I0
I0
I0
I0
I0
I0
I0
I0
I0
I0
I0
I0
I0
I0
I0
I0
I0
I0
I0
I0
I0
I0
I0
I0
I0
I0
I0
I0
I0
I0
I0
I0
I0
I0
I0
I0
I0
I0
I0
I0
I0
I0
I0
I0
I0
I0
I0
I0
I0
I0
I0
I0
I0
I0
I0
I0
I0
I0
I0
I0
I0
I0
I0
I0
I0
I0
I0
I0
I0
I0
I0
I0
I0
I0
I0
I0
I0
I0
I0
I0
I0
I0
I0
I0
I99
I99
I99
I99
I99
I99
I0
I0
I0
I0
I0
I99
I99
I99
I100
I99
I99
I0
I0
I0
I0
I0
I0
I0
I0
I0
I0
I0
I0
I0
I0
I0
I0
I0
I0
I0
I0
I0
I0
I0
I0
I0
I0
I0
I0
I0
I0
I0
I0
I0
I0
I0
I0
I0
I0
I0
I0
I0
I0
I0
I0
I0
I0
I0
I0
I0
I0
I0
I0
I0
I0
I0
I0
I0
I0
I0
I0
I0
I0
I0
I0
I0
I0
I0
I0
I0
I0
I0
I0
I0
I0
I0
I0
I0
I0
I0
I0
I0
I0
I0
I0
I0
I0
I0
I0
I0
I0
I0
I0
I0
I0
I0
I0
I0
I0
I0
I0
I0
I0
I0
I99
I0
I0
I99
I0
I0
I0
I0
I0
I0
I0
I99
I99
I99
I99
I0
I0
I0
I0
I0
I0
I0
I0
I0
I0
I0
I0
I0
I0
I0
I0
I0
I0
I0
I0
I0
I0
I0
I0
I0
I0
I0
I0
I0
I0
I0
I0
I0
I0
I0
I0
I0
I0
I0
I0
I0
I0
I0
I0
I0
I0
I0
I0
I0
I0
I0
I0
I0
I0
I0
I0
I0
I0
I0
I0
I0
I0
I0
I0
I0
I0
I0
I0
I0
I0
I0
I0
I0
I0
I0
I0
I0
I0
I0
I0
I0
I0
I0
I0
I0
I0
I0
I0
I0
I0
I0
I0
I0
I0
I0
I0
I0
I0
I0
I0
I0
I0
I0
I0
I0
I0
I99
I99
I99
I0
I0
I0
I0
I0
I0
I0
I0
I99
I0
I0
I0
I0
I0
I0
I0
I0
I0
I0
I0
I0
I0
I0
I0
I0
I0
I0
I0
I0
I0
I0
I0
I0
I0
I0
I0
I0
I0
I0
I0
I0
I0
I0
I0
I0
I0
I0
I0
I0
I0
I0
I0
I0
I0
I0
I0
I0
I0
I0
I0
I0
I0
I0
I0
I0
I0
I0
I0
I0
I0
I0
I0
I0
I0
I0
I0
I0
I0
I0
I0
I0
I0
I0
I0
I0
I0
I0
I0
I0
I0
I0
I0
I0
I0
I0
I0
I0
I0
I0
I0
I0
I0
I0
I0
I0
I0
I0
I0
I0
I0
I0
I0
I0
I0
I0
I99
I99
I100
I99
I99
I0
I0
I0
I0
I0
I0
I0
I0
I0
I0
I0
I0
I0
I0
I0
I0
I0
I0
I0
I0
I0
I0
I0
I0
I0
I0
I0
I0
I0
I0
I0
I0
I0
I0
I0
I0
I0
I0
I0
I0
I0
I0
I0
I0
I0
I0
I0
I0
I0
I0
I0
I0
I0
I0
I0
I0
I0
I0
I0
I0
I0
I0
I0
I0
I0
I0
I0
I0
I0
I0
I0
I0
I0
I0
I0
I0
I0
I0
I0
I0
I0
I0
I0
I0
I0
I0
I0
I0
I0
I0
I0
I0
I0
I0
I0
I0
I0
I0
I0
I0
I0
I0
I0
I0
I0
I0
I0
I0
I0
I0
I0
I0
I0
I0
I0
I99
I99
I99
I0
I0
I0
I0
I0
I0
I0
I0
I0
I0
I0
I0
I0
I0
I0
I0
I0
I0
I0
I0
I0
I0
I0
I0
I0
I0
I0
I0
I0
I0
I0
I0
I0
I0
I0
I0
I0
I0
I0
I0
I0
I0
I0
I0
I0
I0
I0
I0
I0
I0
I0
I0
I0
I0
I0
I0
I0
I0
I0
I0
I0
I0
I0
I0
I0
I0
I0
I0
I0
I0
I0
I0
I0
I0
I0
I0
I0
I0
I0
I0
I0
I0
I0
I0
I0
I0
I0
I0
I0
I0
I0
I0
I0
I0
I0
I0
I0
I0
I0
I0
I0
I0
I0
I0
I0
I0
I0
I0
I0
I0
I0
I0
I0
I0
I0
I0
I99
I99
I99
I0
I0
I0
I0
I0
I0
I0
I0
I0
I0
I0
I0
I0
I0
I0
I0
I0
I0
I0
I0
I0
I0
I0
I0
I0
I0
I0
I0
I0
I0
I0
I0
I0
I0
I0
I0
I0
I0
I0
I0
I0
I0
I0
I0
I0
I0
I0
I0
I0
I0
I0
I0
I0
I0
I0
I0
I0
I0
I0
I0
I0
I0
I0
I0
I0
I0
I0
I0
I0
I0
I0
I0
I0
I0
I0
I0
I0
I0
I0
I0
I0
I0
I0
I0
I0
I0
I0
I0
I0
I0
I0
I0
I0
I0
I0
I0
I0
I0
I0
I0
I0
I0
I0
I0
I0
I0
I0
I0
I0
I0
I0
I0
I0
I0
I0
I99
I99
I100
I99
I99
I0
I0
I0
I0
I0
I0
I0
I0
I0
I0
I0
I0
I0
I0
I0
I0
I0
I0
I0
I0
I0
I0
I0
I0
I0
I0
I0
I0
I0
I0
I0
I0
I0
I0
I0
I0
I0
I0
I0
I0
I0
I0
I0
I0
I0
I0
I0
I0
I0
I0
I0
I0
I0
I0
I0
I0
I0
I0
I0
I0
I0
I0
I0
I0
I0
I0
I0
I0
I0
I0
I0
I0
I0
I0
I0
I0
I0
I0
I0
I0
I0
I0
I0
I0
I0
I0
I0
I0
I0
I0
I0
I0
I0
I0
I0
I0
I0
I0
I0
I0
I0
I0
I0
I0
I0
I0
I0
I0
I0
I0
I0
I0
I0
I0
I0
I99
I99
I99
I0
I0
I0
I0
I0
I0
I0
I0
I0
I0
I0
I0
I0
I0
I0
I0
I0
I0
I0
I0
I0
I0
I0
I0
I0
I0
I0
I0
I0
I0
I0
I0
I0
I0
I0
I0
I0
I0
I0
I0
I0
I0
I0
I0
I0
I0
I0
I0
I0
I0
I0
I0
I0
I0
I0
I0
I0
I0
I0
I0
I0
I0
I0
I0
I0
I0
I0
I0
I0
I0
I0
I0
I0
I0
I0
I0
I0
I0
I0
I0
I0
I0
I0
I0
I0
I0
I0
I0
I0
I0
I0
I0
I0
I0
I0
I0
I0
I0
I0
I0
I0
I0
I0
I0
I0
I0
I0
I0
I0
I0
I0
I0
I0
I0
I0
I0
I99
I99
I99
I0
I0
I0
I0
I0
I0
I0
I0
I0
I0
I0
I0
I0
I0
I0
I0
I0
I0
I0
I0
I0
I0
I0
I0
I0
I0
I0
I0
I0
I0
I0
I0
I0
I0
I0
I0
I0
I0
I0
I0
I0
I0
I0
I0
I0
I0
I0
I0
I0
I0
I0
I0
I0
I0
I0
I0
I0
I0
I0
I0
I0
I0
I0
I0
I0
I0
I0
I0
I0
I0
I0
I0
I0
I0
I0
I0
I0
I0
I0
I0
I0
I0
I0
I0
I0
I0
I0
I0
I0
I0
I0
I0
I0
I0
I0
I0
I0
I0
I0
I0
I0
I0
I0
I0
I0
I0
I0
I0
I0
I0
I0
I0
I0
I0
I0
I99
I99
I100
I99
I99
I0
I0
I0
I0
I0
I0
I0
I0
I0
I0
I0
I0
I0
I0
I0
I0
I0
I0
I0
I0
I0
I0
I0
I0
I0
I0
I0
I0
I0
I0
I0
I0
I0
I0
I0
I0
I0
I0
I0
I0
I0
I0
I0
I0
I0
I0
I0
I0
I0
I0
I0
I0
I0
I0
I0
I0
I0
I0
I0
I0
I0
I0
I0
I0
I0
I0
I0
I0
I0
I0
I0
I0
I0
I0
I0
I0
I0
I0
I0
I0
I0
I0
I0
I0
I0
I0
I0
I0
I0
I0
I0
I0
I0
I0
I0
I0
I0
I0
I0
I0
I0
I0
I0
I0
I0
I0
I0
I0
I0
I0
I0
I0
I0
I0
I0
I99
I99
I99
I99
I0
I0
I0
I0
I0
I0
I0
I0
I0
I0
I0
I0
I0
I0
I0
I0
I0
I0
I0
I0
I0
I0
I0
I0
I0
I0
I0
I0
I0
I0
I0
I0
I0
I0
I0
I0
I0
I0
I0
I0
I0
I0
I0
I0
I0
I0
I0
I0
I0
I0
I0
I0
I0
I0
I0
I0
I0
I0
I0
I0
I0
I0
I0
I0
I0
I0
I0
I0
I0
I0
I0
I0
I0
I0
I0
I0
I0
I0
I0
I0
I0
I0
I0
I0
I0
I0
I0
I0
I0
I0
I0
I0
I0
I0
I0
I0
I0
I0
I0
I0
I0
I0
I0
I0
I0
I0
I0
I0
I0
I0
I0
I0
I0
I0
I0
I99
I99
I100
I99
I99
I0
I0
I0
I0
I0
I0
I0
I0
I0
I0
I0
I0
I0
I0
I0
I0
I0
I0
I0
I0
I0
I0
I0
I0
I0
I0
I0
I0
I0
I0
I0
I0
I0
I0
I0
I0
I0
I0
I0
I0
I0
I0
I0
I0
I0
I0
I0
I0
I0
I0
I0
I0
I0
I0
I0
I0
I0
I0
I0
I0
I0
I0
I0
I0
I0
I0
I0
I0
I0
I0
I0
I0
I0
I0
I0
I0
I0
I0
I0
I0
I0
I0
I0
I0
I0
I0
I0
I0
I0
I0
I0
I0
I0
I0
I0
I0
I0
I0
I0
I0
I0
I0
I0
I0
I0
I0
I0
I0
I0
I0
I0
I0
I0
I0
I0
I99
I99
I100
I99
I99
I0
I0
I0
I0
I0
I0
I0
I0
I0
I0
I0
I0
I0
I0
I0
I0
I0
I0
I0
I0
I0
I0
I0
I0
I0
I0
I0
I0
I0
I0
I0
I0
I0
I0
I0
I0
I0
I0
I0
I0
I0
I0
I0
I0
I0
I0
I0
I0
I0
I0
I0
I0
I0
I0
I0
I0
I0
I0
I0
I0
I0
I0
I0
I0
I0
I0
I0
I0
I0
I0
I0
I0
I0
I0
I0
I0
I0
I0
I0
I0
I0
I0
I0
I0
I0
I0
I0
I0
I0
I0
I0
I0
I0
I0
I0
I0
I0
I0
I0
I0
I0
I0
I0
I0
I0
I0
I0
I0
I0
I0
I0
I0
I0
I0
I0
I99
I99
I99
I0
I0
I0
I0
I99
I0
I0
I0
I0
I0
I0
I0
I0
I0
I0
I0
I0
I0
I0
I0
I0
I0
I0
I0
I0
I0
I0
I0
I0
I0
I0
I0
I0
I0
I0
I0
I0
I0
I0
I0
I0
I0
I0
I0
I0
I0
I0
I0
I0
I0
I0
I0
I0
I0
I0
I0
I0
I0
I0
I0
I0
I0
I0
I0
I0
I0
I0
I0
I0
I0
I0
I0
I0
I0
I0
I0
I0
I0
I0
I0
I0
I0
I0
I0
I0
I0
I0
I0
I0
I0
I0
I0
I0
I0
I0
I0
I0
I0
I0
I0
I0
I0
I0
I0
I0
I0
I0
I0
I0
I0
I0
I0
I0
I0
I0
I0
I0
I99
I0
I0
I0
I0
I99
I99
I99
I0
I0
I0
I0
I0
I0
I0
I0
I0
I0
I0
I0
I0
I0
I0
I0
I0
I0
I0
I0
I0
I0
I0
I0
I0
I0
I0
I0
I0
I0
I0
I0
I0
I0
I0
I0
I0
I0
I0
I0
I0
I0
I0
I0
I0
I0
I0
I0
I0
I0
I0
I0
I0
I0
I0
I0
I0
I0
I0
I0
I0
I0
I0
I0
I0
I0
I0
I0
I0
I0
I0
I0
I0
I0
I0
I0
I0
I0
I0
I0
I0
I0
I0
I0
I0
I0
I0
I0
I0
I0
I0
I0
I0
I0
I0
I0
I0
I0
I0
I0
I0
I0
I0
I0
I0
I0
I0
I0
I0
I0
I0
I0
I0
I0
I0
I99
I99
I100
I99
I99
I0
I0
I0
I0
I0
I0
I0
I0
I0
I0
I0
I0
I0
I0
I0
I0
I0
I0
I0
I0
I0
I0
I0
I0
I0
I0
I0
I0
I0
I0
I0
I0
I0
I0
I0
I0
I0
I0
I0
I0
I0
I0
I0
I0
I0
I0
I0
I0
I0
I0
I0
I0
I0
I0
I0
I0
I0
I0
I0
I0
I0
I0
I0
I0
I0
I0
I0
I0
I0
I0
I0
I0
I0
I0
I0
I0
I0
I0
I0
I0
I0
I0
I0
I0
I0
I0
I0
I0
I0
I0
I0
I0
I0
I0
I0
I0
I0
I0
I0
I0
I0
I0
I0
I0
I0
I0
I0
I0
I0
I0
I0
I0
I0
I0
I0
I99
I99
I99
I0
I0
I0
I0
I0
I0
I0
I0
I0
I0
I0
I0
I0
I0
I0
I0
I0
I0
I0
I0
I0
I0
I0
I0
I0
I0
I0
I0
I0
I0
I0
I0
I0
I0
I0
I0
I0
I0
I0
I0
I0
I0
I0
I0
I0
I0
I0
I0
I0
I0
I0
I0
I0
I0
I0
I0
I0
I0
I0
I0
I0
I0
I0
I0
I0
I0
I0
I0
I0
I0
I0
I0
I0
I0
I0
I0
I0
I0
I0
I0
I0
I0
I0
I0
I0
I0
I0
I0
I0
I0
I0
I0
I0
I0
I0
I0
I0
I0
I0
I0
I0
I0
I0
I0
I0
I0
I0
I0
I0
I0
I0
I0
I0
I0
I0
I0
I0
I99
I0
I0
I0
I0
I0
I0
I0
I0
I0
I0
I0
I0
I0
I0
I0
I0
I0
I0
I0
I0
I99
I0
I0
I0
I0
I0
I0
I0
I0
I0
I0
I0
I0
I0
I0
I0
I0
I0
I0
I0
I0
I0
I0
I0
I0
I0
I0
I0
I0
I0
I0
I0
I0
I0
I0
I0
I0
I0
I0
I0
I0
I0
I0
I0
I0
I0
I0
I0
I0
I0
I0
I0
I0
I0
I0
I0
I0
I0
I0
I0
I0
I0
I0
I0
I0
I0
I0
I0
I0
I0
I0
I0
I0
I0
I0
I0
I0
I0
I0
I0
I0
I0
I0
I0
I0
I0
I0
I0
I0
I0
I0
I0
I0
I0
I0
I0
I0
I0
I0
I0
I0
I0
I0
I0
I0
I0
I0
I0
I0
I0
I0
I0
I0
I0
I0
I0
I0
I0
I99
I99
I99
I0
I0
I0
I0
I0
I0
I0
I0
I0
I0
I0
I0
I0
I0
I0
I0
I0
I0
I0
I0
I0
I0
I0
I0
I0
I0
I0
I0
I0
I0
I0
I0
I0
I0
I0
I0
I0
I0
I0
I0
I0
I0
I0
I0
I0
I0
I0
I0
I0
I0
I0
I0
I0
I0
I0
I0
I0
I0
I0
I0
I0
I0
I0
I0
I0
I0
I0
I0
I0
I0
I0
I0
I0
I0
I0
I0
I0
I0
I0
I0
I0
I0
I0
I0
I0
I0
I0
I0
I0
I0
I0
I0
I0
I0
I0
I0
I0
I0
I0
I0
I0
I0
I0
I0
I0
I0
I0
I0
I0
I0
I0
I0
I0
I0
I99
I99
I99
I100
I99
I99
I0
I0
I0
I0
I0
I0
I0
I0
I0
I0
I0
I0
I0
I0
I0
I0
I0
I0
I0
I0
I0
I0
I0
I0
I0
I0
I0
I0
I0
I0
I0
I0
I0
I0
I0
I0
I0
I0
I0
I0
I0
I0
I0
I0
I0
I0
I0
I0
I0
I0
I0
I0
I0
I0
I0
I0
I0
I0
I0
I0
I0
I0
I0
I0
I0
I0
I0
I0
I0
I0
I0
I0
I0
I0
I0
I0
I0
I0
I0
I0
I0
I0
I0
I0
I0
I0
I0
I0
I0
I0
I0
I0
I0
I0
I0
I0
I0
I0
I0
I0
I0
I0
I0
I0
I0
I0
I0
I0
I0
I0
I0
I0
I99
I99
I99
I99
I100
I99
I99
I0
I0
I0
I0
I0
I0
I0
I0
I0
I0
I0
I0
I0
I0
I0
I0
I0
I0
I0
I0
I0
I0
I0
I0
I0
I0
I0
I0
I0
I0
I0
I0
I0
I0
I0
I0
I0
I0
I0
I0
I0
I0
I0
I0
I0
I0
I0
I0
I0
I0
I0
I0
I0
I0
I0
I0
I0
I0
I0
I0
I0
I0
I0
I0
I0
I0
I0
I0
I0
I0
I0
I0
I0
I0
I0
I0
I0
I0
I0
I0
I0
I0
I0
I0
I0
I0
I0
I0
I0
I0
I0
I0
I0
I0
I0
I0
I0
I0
I0
I0
I0
I0
I0
I0
I0
I0
I0
I0
I0
I0
I0
I99
I99
I100
I99
I100
I99
I99
I0
I0
I0
I0
I0
I0
I0
I0
I0
I0
I0
I0
I0
I0
I0
I0
I0
I0
I0
I0
I0
I0
I0
I0
I0
I0
I0
I0
I0
I0
I0
I0
I0
I0
I0
I0
I0
I0
I0
I0
I0
I0
I0
I0
I0
I0
I0
I0
I0
I0
I0
I0
I0
I0
I0
I0
I0
I0
I0
I0
I0
I0
I0
I0
I0
I0
I0
I0
I0
I0
I0
I0
I0
I0
I0
I0
I0
I0
I0
I0
I0
I0
I0
I0
I0
I0
I0
I0
I0
I0
I0
I0
I0
I0
I0
I0
I0
I0
I0
I0
I0
I0
I0
I0
I0
I0
I0
I0
I0
I0
I0
I0
I0
I99
I99
I99
I100
I99
I99
I99
I0
I0
I0
I0
I0
I0
I0
I0
I0
I0
I0
I0
I0
I0
I0
I0
I0
I0
I0
I0
I0
I0
I0
I0
I0
I0
I0
I0
I0
I0
I0
I0
I0
I0
I0
I0
I0
I0
I0
I0
I0
I0
I0
I0
I0
I0
I0
I0
I0
I0
I0
I0
I0
I0
I0
I0
I0
I0
I0
I0
I0
I0
I0
I0
I0
I0
I0
I0
I0
I0
I0
I0
I0
I0
I0
I0
I0
I0
I0
I0
I0
I0
I0
I0
I0
I0
I0
I0
I0
I0
I0
I0
I0
I0
I0
I0
I0
I0
I0
I0
I0
I0
I0
I0
I0
I0
I0
I0
I0
I0
I0
I0
I0
I99
I99
I100
I99
I99
I99
I99
I0
I0
I0
I0
I0
I0
I0
I0
I0
I0
I0
I0
I0
I0
I0
I0
I0
I0
I0
I0
I0
I0
I0
I0
I0
I0
I0
I0
I0
I0
I0
I0
I0
I0
I0
I0
I0
I0
I0
I0
I0
I0
I0
I0
I0
I0
I0
I0
I0
I0
I0
I0
I0
I0
I0
I0
I0
I0
I0
I0
I0
I0
I0
I0
I0
I0
I0
I0
I0
I0
I0
I0
I0
I0
I0
I0
I0
I0
I0
I0
I0
I0
I0
I0
I0
I0
I0
I0
I0
I0
I0
I0
I0
I0
I0
I0
I0
I0
I0
I0
I0
I0
I0
I0
I0
I0
I0
I0
I0
I0
I0
I99
I99
I100
I100
I99
I100
I100
I99
I99
I0
I0
I0
I0
I0
I0
I0
I0
I0
I0
I0
I0
I0
I0
I0
I0
I0
I0
I0
I0
I0
I0
I0
I0
I0
I0
I0
I0
I0
I0
I0
I0
I0
I0
I0
I0
I0
I0
I0
I0
I0
I0
I0
I0
I0
I0
I0
I0
I0
I0
I0
I0
I0
I0
I0
I0
I0
I0
I0
I0
I0
I0
I0
I0
I0
I0
I0
I0
I0
I0
I0
I0
I0
I0
I0
I0
I0
I0
I0
I0
I0
I0
I0
I0
I0
I0
I0
I0
I0
I0
I0
I0
I0
I0
I0
I0
I0
I0
I0
I0
I0
I0
I0
I0
I0
I0
I0
I0
I0
I0
I0
I99
I99
I100
I99
I99
I99
I99
I0
I0
I0
I0
I0
I0
I0
I0
I0
I0
I0
I0
I0
I0
I0
I0
I0
I0
I0
I0
I0
I0
I0
I0
I0
I0
I0
I0
I0
I0
I0
I0
I0
I0
I0
I0
I0
I0
I0
I0
I0
I0
I0
I0
I0
I0
I0
I0
I0
I0
I0
I0
I0
I0
I0
I0
I0
I0
I0
I0
I0
I0
I0
I0
I0
I0
I0
I0
I0
I0
I0
I0
I0
I0
I0
I0
I0
I0
I0
I0
I0
I0
I0
I0
I0
I0
I0
I0
I0
I0
I0
I0
I0
I0
I0
I0
I0
I0
I0
I0
I0
I0
I0
I0
I0
I0
I0
I0
I0
I0
I0
I0
I0
I99
I99
I99
I99
I99
I0
I0
I0
I0
I0
I0
I0
I0
I0
I0
I0
I0
I0
I0
I0
I0
I0
I0
I0
I0
I0
I0
I0
I0
I0
I0
I0
I0
I0
I0
I0
I0
I0
I0
I0
I0
I0
I0
I0
I0
I0
I0
I0
I0
I0
I0
I0
I0
I0
I0
I0
I0
I0
I0
I0
I0
I0
I0
I0
I0
I0
I0
I0
I0
I0
I0
I0
I0
I0
I0
I0
I0
I0
I0
I0
I0
I0
I0
I0
I0
I0
I0
I0
I0
I0
I0
I0
I0
I0
I0
I0
I0
I0
I0
I0
I0
I0
I0
I0
I0
I0
I0
I0
I0
I0
I0
I0
I0
I0
I0
I0
I0
I0
I0
I0
I99
I0
I0
I0
I0
I0
I0
I0
I0
I0
I0
I0
I0
I0
I0
I0
I0
I0
I0
I0
I0
I0
I0
I0
I0
I0
I0
I0
I0
I0
I0
I0
I0
I0
I0
I0
I0
I0
I0
I0
I0
I0
I0
I0
I0
I0
I0
I0
I0
I0
I0
I0
I0
I0
I0
I0
I0
I0
I0
I0
I0
I0
I0
I0
I0
I0
I0
I0
I0
I0
I0
I0
I0
I0
I0
I0
I0
I0
I0
I0
I0
I0
I0
I0
I0
I0
I0
I0
I0
I0
I0
I0
I0
I0
I0
I0
I0
I0
I0
I0
I0
I0
I0
I0
I0
I0
I0
I0
I0
I0
I0
I0
I0
I0
I0
I0
I0
I0
I0
I0
I0
I0
I0
I0
I0
I0
I0
I0
I0
I0
I0
I0
I0
I0
I0
I0
I0
I0
I0
I0
I0
I0
I0
I0
I0
I0
I0
I0
I0
I0
I0
I0
I0
I0
I0
I0
I0
I0
I0
I0
I0
I0
I0
I0
I0
I0
I0
I0
I0
I0
I0
I0
I0
I0
I0
I0
I0
I0
I0
I0
I0
I0
I0
I0
I0
I0
I0
I0
I0
I0
I0
I0
I0
I0
I0
I0
I0
I0
I0
I0
I0
I0
I0
I0
I0
I0
I0
I0
I0
I0
I0
I0
I0
I0
I0
I0
I0
I0
I0
I0
I0
I0
I0
I0
I0
I0
I0
I0
I0
I0
I0
I0
I0
I0
I0
I0
I0
I0
I0
I0
I0
I0
I0
I0
I0
I0
I0
I0
I0
I0
I0
I0
I0
I0
I0
I0
I0
I0
I0
I0
I0
I0
I0
I0
I0
I0
I0
I0
I0
I0
I0
I0
I0
I0
I0
I0
I0
I0
I0
I0
I0
I0
I0
I0
I0
I0
I0
I0
I0
I0
I0
I0
I0
I0
I0
I0
I0
I0
I0
I0
I0
I0
I0
I0
I0
I0
I0
I0
I0
I0
I0
I0
I0
I0
I0
I0
I0
I0
I0
I0
I0
I0
I0
I0
I0
I0
I0
I0
I0
I0
I0
I0
I0
I0
I0
I0
I0
I0
I0
I0
I0
I0
I0
I0
I0
I0
I0
I0
I0
I0
I0
I0
I0
I0
I0
I0
I0
I0
I0
I0
I0
I0
I0
I0
I0
I0
I0
I0
I0
I0
I0
I0
I0
I0
I0
I0
I0
I0
I0
I0
I0
I0
I0
I0
I0
I0
I0
I0
I0
I0
I0
I0
I0
I0
I0
I0
I0
I0
I0
I0
I0
I0
I0
I0
I0
I0
I0
I0
I0
I0
I0
I0
I0
I0
I0
I0
I0
I0
I0
I0
I0
I0
I0
I0
I0
I0
I0
I0
I0
I0
I0
I0
I0
I0
I0
I0
I0
I0
I0
I0
I0
I0
I0
I0
I0
I0
I0
I0
I0
I0
I0
I0
I0
I0
I0
I0
I0
I0
I0
I0
I0
I0
I0
I0
I0
I0
I0
I0
I0
I0
I0
I0
I0
I0
I0
I0
I0
I0
I0
I0
I0
I0
I0
I0
I0
I0
I0
I0
I0
I0
I0
I0
I0
I0
I0
I0
I0
I0
I0
I0
I0
I0
I0
I0
I0
I0
I0
I0
I0
I0
I0
I0
I0
I0
I0
I0
I0
I0
I0
I0
I0
I0
I0
I0
I0
I0
I0
I0
I0
I0
I0
I0
I0
I0
I0
I0
I0
I0
I0
I0
I0
I0
I0
I0
I0
I0
I0
I0
I0
I0
I0
I0
I0
I0
I0
I0
I0
I0
I0
I0
I0
I0
I0
I0
I0
I0
I0
I0
I0
I0
I0
I0
I0
I0
I0
I0
I0
I0
I0
I0
I0
I0
I0
I0
I0
I0
I0
I0
I0
I0
I0
I0
I0
I0
I0
I0
I0
I0
I0
I0
I0
I0
I0
I0
I0
I0
I0
I0
I0
I0
I0
I0
I0
I0
I0
I0
I0
I0
I0
I0
I0
I0
I0
I0
I0
I0
I0
I0
I0
I0
I0
I0
I0
I0
I0
I0
I0
I0
I0
I0
I0
I0
I0
I0
I0
I0
I0
I0
I0
I0
I0
I0
I0
I0
I0
I0
I0
I0
I0
I0
I0
I0
I0
I0
I0
I0
I0
I0
I0
I0
I0
I0
I0
I0
I0
I0
I0
I0
I0
I0
I0
I0
I0
I0
I0
I0
I0
I0
I0
I0
I0
I0
I0
I0
I0
I0
I0
I0
I0
I0
I0
I0
I0
I0
I0
I0
I0
I0
I0
I0
I0
I0
I0
I0
I0
I0
I0
I0
I0
I0
I0
I0
I0
I0
I0
I0
I0
I0
I0
I0
I0
I0
I0
I0
I0
I0
I0
I0
I0
I0
I0
I0
I0
I0
I0
I0
I0
I0
I0
I0
I0
I0
I0
I0
I0
I0
I0
I0
I0
I0
I0
I0
I0
I0
I0
I0
I0
I0
I0
I0
I0
I0
I0
I0
I0
I0
I0
I0
I0
I0
I0
I0
I0
I0
I0
I0
I0
I0
I0
I0
I0
I0
I0
I0
I0
I0
I0
I0
I0
I0
I0
I0
I0
I0
I0
I0
I0
I0
I0
I0
I0
I0
I0
I0
I0
I0
I0
I0
I0
I0
I0
I0
I0
I0
I0
I0
I0
I0
I0
I0
I0
I0
I0
I0
I0
I0
I0
I0
I0
I0
I0
I0
I0
I0
I0
I0
I0
I0
I0
I0
I0
I0
I0
I0
I0
I0
I0
I0
I0
I0
I0
I0
I0
I0
I0
I0
I0
I0
I0
I0
I0
I0
I0
I0
I0
I0
I0
I0
I0
I0
I0
I0
I0
I0
I0
I0
I0
I0
I0
I0
I0
I0
I0
I0
I0
I0
I0
I0
I0
I0
I0
I0
I0
I0
I0
I0
I0
I0
I0
I0
I0
I0
I0
I0
I0
I0
I0
I0
I0
I0
I0
I0
I0
I0
I0
I0
I0
I0
I0
I0
I0
I0
I0
I0
I0
I0
I0
I0
I0
I0
I0
I0
I0
I0
I0
I0
I0
I0
I0
I0
I0
I0
I0
I0
I0
I0
I0
I0
I0
I0
I0
I0
I0
I0
I0
I0
I0
I0
I0
I0
I0
I0
I0
I0
I0
I0
I0
I0
I0
I0
I0
I0
I0
I0
I0
I0
I0
I0
I0
I0
I0
I0
I0
I0
I0
I0
I0
I0
I0
I0
I0
I0
I0
I0
I0
I0
I0
I0
I0
I0
I0
I0
I0
I0
I0
I0
I0
I0
I0
I0
I0
I0
I0
I0
I0
I0
I0
I0
I0
I0
I0
I0
I0
I0
I0
I0
I0
I0
I0
I0
I0
I0
I0
I0
I0
I0
I0
I0
I0
I0
I0
I0
I0
I0
I0
I0
I0
I0
I0
I0
I0
I0
I0
I0
I0
I0
I0
I0
I0
I0
I0
I0
I0
I0
I0
I0
I0
I0
I0
I0
I0
I0
I0
I0
I0
I0
I0
I0
I0
I0
I0
I0
I0
I0
I0
I0
I0
I0
I0
I0
I0
I0
I0
I0
I0
I0
I0
I0
I0
I0
I0
I0
I0
I0
I0
I0
I0
I0
I0
I0
I0
I0
I0
I0
I0
I0
I0
I0
I0
I0
I0
I0
I0
I0
I0
I0
I0
I0
I0
I0
I0
I0
I0
I0
I0
I0
I0
I0
I0
I0
I0
I0
I0
I0
I0
I0
I0
I0
I0
I0
I0
I0
I0
I0
I0
I0
I0
I0
I0
I0
I0
I0
I0
I0
I0
I0
I0
I0
I0
I0
I0
I0
I0
I0
I0
I0
I0
I0
I0
I0
I0
I0
I0
I0
I0
I0
I0
I0
I0
I0
I0
I0
I0
I0
I0
I0
I0
I0
I0
I0
I0
I0
I0
I0
I0
I0
I0
I0
I0
I0
I0
I0
I0
I0
I0
I0
I0
I0
I0
I0
I0
I0
I0
I0
I0
I0
I0
I0
I0
I0
I0
I0
I0
I0
I0
I0
I0
I0
I0
I0
I0
I0
I0
I0
I0
I0
I0
I0
I0
I0
I0
I0
I0
I0
I0
I0
I0
I0
I0
I0
I0
I0
I0
I0
I0
I0
I0
I0
I0
I0
I0
I0
I0
I0
I0
I0
I0
I0
I0
I0
I0
I0
I0
I0
I0
I0
I0
I0
I0
I0
I0
I0
I0
I0
I0
I0
I0
I0
I0
I0
I99
I0
I0
I0
I0
I0
I0
I0
I0
I0
I0
I0
I0
I0
I0
I0
I0
I0
I0
I0
I0
I0
I0
I0
I0
I0
I0
I0
I0
I0
I0
I0
I0
I0
I0
I0
I0
I0
I0
I0
I0
I0
I0
I0
I0
I0
I0
I0
I0
I0
I0
I0
I0
I0
I0
I0
I0
I0
I0
I0
I0
I0
I0
I0
I0
I0
I0
I0
I0
I0
I0
I0
I0
I0
I0
I0
I0
I0
I0
I0
I0
I0
I0
I0
I0
I0
I0
I0
I0
I0
I0
I0
I0
I0
I0
I0
I0
I0
I0
I0
I0
I0
I0
I0
I0
I0
I0
I0
I0
I0
I0
I0
I0
I0
I0
I0
I0
I0
I99
I99
I99
I0
I0
I0
I0
I0
I0
I0
I0
I0
I0
I0
I0
I0
I0
I0
I0
I0
I0
I0
I0
I0
I0
I0
I0
I0
I0
I0
I0
I0
I0
I0
I0
I0
I0
I0
I0
I0
I0
I0
I0
I0
I0
I0
I0
I0
I0
I0
I0
I0
I0
I0
I0
I0
I0
I0
I0
I0
I0
I0
I0
I0
I0
I0
I0
I0
I0
I0
I0
I0
I0
I0
I0
I0
I0
I0
I0
I0
I0
I0
I0
I0
I0
I0
I0
I0
I0
I0
I0
I0
I0
I0
I0
I0
I0
I0
I0
I0
I0
I0
I0
I0
I0
I0
I0
I0
I0
I0
I0
I99
I0
I0
I0
I0
I0
I0
I99
I99
I100
I99
I99
I0
I0
I0
I0
I0
I0
I0
I0
I0
I0
I0
I0
I0
I0
I0
I0
I0
I0
I0
I0
I0
I0
I0
I0
I0
I0
I0
I0
I0
I0
I0
I0
I0
I0
I0
I0
I0
I0
I0
I0
I0
I0
I0
I0
I0
I0
I0
I0
I0
I0
I0
I0
I0
I0
I0
I0
I0
I0
I0
I0
I0
I0
I0
I0
I0
I0
I0
I0
I0
I0
I0
I0
I0
I0
I0
I0
I0
I0
I0
I0
I0
I0
I0
I0
I0
I0
I0
I0
I0
I0
I0
I0
I0
I0
I0
I0
I0
I0
I0
I0
I0
I0
I0
I0
I0
I0
I99
I99
I99
I0
I0
I0
I0
I0
I0
I99
I99
I99
I0
I0
I0
I0
I0
I0
I0
I0
I0
I0
I0
I0
I0
I0
I0
I0
I0
I0
I0
I0
I0
I0
I0
I0
I0
I0
I0
I0
I0
I0
I0
I0
I0
I0
I0
I0
I0
I0
I0
I0
I0
I0
I0
I0
I0
I0
I0
I0
I0
I0
I0
I0
I0
I0
I0
I0
I0
I0
I0
I0
I0
I0
I0
I0
I0
I0
I0
I0
I0
I0
I0
I0
I0
I0
I0
I0
I0
I0
I0
I0
I0
I0
I0
I0
I0
I0
I0
I0
I0
I0
I0
I0
I0
I0
I0
I0
I0
I0
I0
I0
I0
I0
I0
I0
I0
I0
I99
I99
I100
I99
I99
I0
I0
I0
I0
I0
I0
I99
I0
I0
I0
I0
I0
I0
I0
I0
I0
I0
I0
I0
I0
I0
I0
I0
I0
I0
I0
I0
I0
I0
I0
I0
I0
I0
I0
I0
I0
I0
I0
I0
I0
I0
I0
I0
I0
I0
I0
I0
I0
I0
I0
I0
I0
I0
I0
I0
I0
I0
I0
I0
I0
I0
I0
I0
I0
I0
I0
I0
I0
I0
I0
I0
I0
I0
I0
I0
I0
I0
I0
I0
I0
I0
I0
I0
I0
I0
I0
I0
I0
I0
I0
I0
I0
I0
I0
I0
I0
I0
I0
I0
I0
I0
I0
I0
I0
I0
I0
I0
I0
I0
I0
I0
I0
I0
I0
I0
I99
I99
I99
I0
I0
I0
I0
I0
I0
I0
I0
I0
I0
I0
I0
I0
I0
I0
I0
I0
I0
I0
I0
I0
I0
I0
I0
I0
I0
I0
I0
I0
I0
I0
I0
I0
I0
I0
I0
I0
I0
I0
I0
I0
I0
I0
I0
I0
I0
I0
I0
I0
I0
I0
I0
I0
I0
I0
I0
I0
I0
I0
I0
I0
I0
I0
I0
I0
I0
I0
I0
I0
I0
I0
I0
I0
I0
I0
I0
I0
I0
I0
I0
I0
I0
I0
I0
I0
I0
I0
I0
I0
I0
I0
I0
I0
I0
I0
I0
I0
I0
I0
I0
I0
I0
I0
I0
I0
I0
I0
I0
I0
I0
I0
I0
I0
I0
I0
I0
I0
I99
I0
I0
I0
I0
I0
I0
I0
I0
I0
I0
I0
I0
I0
I0
I0
I0
I0
I0
I0
I0
I0
I0
I0
I0
I0
I0
I0
I0
I0
I0
I0
I0
I0
I0
I0
I0
I0
I0
I0
I0
I0
I0
I0
I0
I0
I0
I0
I0
I0
I0
I0
I0
I0
I0
I0
I0
I0
I0
I0
I0
I0
I0
I0
I0
I0
I0
I0
I0
I0
I0
I0
I0
I0
I0
I0
I0
I0
I0
I0
I0
I0
I0
I0
I0
I0
I0
I0
I0
I0
I0
I0
I0
I0
I0
I0
I0
I0
I0
I0
I0
I0
I0
I0
I0
I0
I0
I0
I0
I0
I0
I0
I0
I0
I0
I0
I0
I0
I0
I0
I0
I0
I0
I0
I0
I0
I0
I0
I99
I0
I0
I0
I0
I0
I0
I0
I0
I0
I0
I0
I0
I0
I0
I0
I0
I0
I0
I0
I0
I0
I0
I0
I0
I0
I0
I0
I0
I0
I0
I0
I0
I0
I0
I0
I0
I0
I0
I0
I0
I0
I0
I0
I0
I0
I0
I0
I0
I0
I0
I0
I0
I0
I0
I0
I0
I0
I0
I0
I0
I0
I0
I0
I0
I0
I0
I0
I0
I0
I0
I0
I0
I0
I0
I0
I0
I0
I0
I0
I0
I0
I0
I0
I0
I0
I0
I0
I0
I0
I0
I0
I0
I0
I0
I0
I0
I0
I0
I0
I0
I0
I0
I0
I0
I0
I0
I0
I0
I0
I0
I0
I0
I0
I0
I0
I0
I0
I99
I99
I99
I0
I0
I0
I0
I0
I0
I0
I0
I0
I0
I0
I0
I0
I0
I0
I0
I0
I0
I0
I0
I0
I0
I0
I0
I0
I0
I0
I0
I0
I0
I0
I0
I0
I0
I0
I0
I0
I0
I0
I0
I0
I0
I0
I0
I0
I0
I0
I0
I0
I0
I0
I0
I0
I0
I0
I0
I0
I0
I0
I0
I0
I0
I0
I0
I0
I0
I0
I0
I0
I0
I0
I0
I0
I0
I0
I0
I0
I0
I0
I0
I0
I0
I0
I0
I0
I0
I0
I0
I0
I0
I0
I0
I0
I0
I0
I0
I0
I0
I0
I0
I0
I0
I0
I0
I0
I0
I0
I0
I0
I0
I0
I0
I0
I0
I0
I99
I99
I100
I99
I99
I0
I0
I0
I0
I0
I0
I0
I0
I0
I0
I0
I0
I0
I0
I0
I0
I0
I0
I0
I0
I0
I0
I0
I0
I0
I0
I0
I0
I0
I0
I0
I0
I0
I0
I0
I0
I0
I0
I0
I0
I0
I0
I0
I0
I0
I0
I0
I0
I0
I0
I0
I0
I0
I0
I0
I0
I0
I0
I0
I0
I0
I0
I0
I0
I0
I0
I0
I0
I0
I0
I0
I0
I0
I0
I0
I0
I0
I0
I0
I0
I0
I0
I0
I0
I0
I0
I0
I0
I0
I0
I0
I0
I0
I0
I0
I0
I0
I0
I0
I0
I0
I0
I0
I0
I0
I0
I0
I0
I0
I0
I0
I0
I0
I0
I99
I99
I100
I99
I99
I0
I0
I0
I0
I0
I0
I0
I0
I0
I0
I0
I0
I0
I0
I0
I0
I0
I0
I0
I0
I0
I0
I0
I0
I0
I0
I0
I0
I0
I0
I0
I0
I0
I0
I0
I0
I0
I0
I0
I0
I0
I0
I0
I0
I0
I0
I0
I0
I0
I0
I0
I0
I0
I0
I0
I0
I0
I0
I0
I0
I0
I0
I0
I0
I0
I0
I0
I0
I0
I0
I0
I0
I0
I0
I0
I0
I0
I0
I0
I0
I0
I0
I0
I0
I0
I0
I0
I0
I0
I0
I0
I0
I0
I0
I0
I0
I0
I0
I0
I0
I0
I0
I0
I0
I0
I0
I0
I0
I0
I0
I0
I0
I99
I0
I99
I99
I99
I99
I99
I0
I0
I0
I0
I0
I0
I0
I0
I0
I0
I0
I0
I0
I0
I0
I0
I0
I0
I0
I0
I0
I0
I0
I0
I0
I0
I0
I0
I0
I0
I0
I0
I0
I0
I0
I0
I0
I0
I0
I0
I0
I0
I0
I0
I0
I0
I0
I0
I0
I0
I0
I0
I0
I0
I0
I0
I0
I0
I0
I0
I0
I0
I0
I0
I0
I0
I0
I0
I0
I0
I0
I0
I0
I0
I0
I0
I0
I0
I0
I0
I0
I0
I0
I0
I0
I0
I0
I0
I0
I0
I0
I0
I0
I0
I0
I0
I0
I0
I0
I0
I0
I0
I0
I0
I0
I0
I0
I0
I0
I0
I0
I99
I99
I99
I99
I99
I99
I100
I99
I99
I0
I0
I0
I0
I0
I0
I0
I0
I0
I0
I0
I0
I0
I0
I0
I0
I0
I0
I0
I0
I0
I0
I0
I0
I0
I0
I0
I0
I0
I0
I0
I0
I0
I0
I0
I0
I0
I0
I0
I0
I0
I0
I0
I0
I0
I0
I0
I0
I0
I0
I0
I0
I0
I0
I0
I0
I0
I0
I0
I0
I0
I0
I0
I0
I0
I0
I0
I0
I0
I0
I0
I0
I0
I0
I0
I0
I0
I0
I0
I0
I0
I0
I0
I0
I0
I0
I0
I0
I0
I0
I0
I0
I0
I0
I0
I0
I0
I0
I0
I0
I0
I99
I0
I0
I0
I0
I0
I0
I0
I99
I99
I100
I99
I100
I99
I99
I99
I99
I0
I0
I0
I0
I0
I0
I0
I0
I0
I0
I0
I0
I0
I0
I0
I0
I0
I0
I0
I0
I0
I0
I0
I0
I0
I0
I0
I0
I0
I0
I0
I0
I0
I0
I0
I0
I0
I0
I0
I0
I0
I0
I0
I0
I0
I0
I0
I0
I0
I0
I0
I0
I0
I0
I0
I0
I0
I0
I0
I0
I0
I0
I0
I0
I0
I0
I0
I0
I0
I0
I0
I0
I0
I0
I0
I0
I0
I0
I0
I0
I0
I0
I0
I0
I0
I0
I0
I0
I0
I0
I0
I0
I0
I0
I0
I0
I0
I0
I0
I0
I0
I99
I99
I99
I99
I0
I99
I0
I0
I0
I0
I99
I99
I99
I99
I99
I0
I99
I0
I0
I0
I0
I0
I0
I0
I0
I0
I0
I0
I0
I99
I0
I0
I0
I0
I0
I0
I0
I0
I0
I0
I0
I0
I0
I0
I0
I0
I0
I0
I0
I0
I0
I0
I0
I0
I0
I0
I0
I0
I0
I0
I0
I0
I0
I0
I0
I0
I0
I0
I0
I0
I0
I0
I0
I0
I0
I0
I0
I0
I0
I0
I0
I0
I0
I0
I0
I0
I0
I0
I0
I0
I0
I0
I0
I0
I0
I0
I0
I0
I0
I0
I0
I0
I0
I0
I0
I0
I0
I0
I0
I0
I0
I0
I0
I0
I0
I0
I0
I0
I99
I99
I100
I99
I99
I99
I99
I99
I99
I0
I0
I0
I99
I0
I99
I0
I0
I0
I0
I0
I0
I0
I0
I0
I0
I0
I0
I0
I0
I99
I99
I99
I0
I0
I0
I0
I0
I0
I0
I0
I0
I0
I0
I0
I0
I0
I0
I0
I0
I0
I0
I0
I0
I0
I0
I0
I0
I0
I0
I0
I0
I0
I0
I0
I0
I0
I0
I0
I0
I0
I0
I0
I0
I0
I0
I0
I0
I0
I0
I0
I0
I0
I0
I0
I0
I0
I0
I0
I0
I0
I0
I0
I0
I0
I0
I0
I0
I0
I0
I0
I0
I0
I0
I0
I0
I0
I0
I0
I0
I0
I0
I0
I0
I0
I0
I0
I0
I0
I0
I99
I99
I100
I99
I100
I99
I100
I99
I99
I99
I99
I0
I0
I0
I0
I0
I0
I0
I0
I0
I0
I0
I0
I0
I0
I0
I99
I0
I99
I99
I100
I99
I99
I0
I0
I0
I0
I0
I0
I0
I0
I0
I0
I0
I0
I0
I0
I0
I0
I0
I0
I0
I0
I0
I0
I0
I0
I0
I0
I0
I0
I0
I0
I0
I0
I0
I0
I0
I0
I0
I0
I0
I0
I0
I0
I0
I0
I0
I0
I0
I0
I0
I0
I0
I0
I0
I0
I0
I0
I0
I0
I0
I0
I0
I0
I0
I0
I0
I0
I0
I0
I0
I0
I0
I0
I0
I0
I0
I0
I0
I0
I0
I0
I0
I0
I0
I0
I0
I0
I0
I99
I99
I99
I99
I99
I100
I99
I100
I99
I99
I99
I0
I0
I0
I0
I0
I0
I0
I0
I0
I0
I0
I0
I0
I99
I99
I99
I99
I99
I99
I100
I99
I99
I0
I0
I0
I0
I0
I0
I0
I0
I0
I0
I0
I0
I0
I0
I0
I0
I0
I0
I0
I0
I0
I0
I0
I0
I0
I0
I0
I0
I0
I0
I0
I0
I0
I0
I0
I0
I0
I0
I0
I0
I0
I0
I0
I0
I0
I0
I0
I0
I0
I0
I0
I0
I0
I0
I0
I0
I0
I0
I0
I0
I0
I0
I0
I0
I0
I0
I0
I0
I0
I0
I0
I0
I0
I0
I0
I0
I0
I0
I0
I0
I0
I0
I0
I0
I0
I0
I0
I99
I0
I99
I99
I99
I99
I99
I99
I100
I99
I99
I0
I0
I0
I0
I0
I0
I0
I0
I0
I0
I0
I99
I99
I100
I99
I100
I99
I99
I99
I99
I0
I0
I0
I0
I0
I0
I0
I0
I0
I0
I0
I0
I0
I0
I0
I0
I0
I0
I0
I0
I0
I0
I0
I0
I0
I0
I0
I0
I0
I0
I0
I0
I0
I0
I0
I0
I0
I0
I0
I0
I0
I0
I0
I0
I0
I0
I0
I0
I0
I0
I0
I0
I0
I0
I0
I0
I0
I0
I0
I0
I0
I0
I0
I0
I0
I0
I0
I0
I0
I0
I0
I0
I0
I0
I0
I0
I0
I0
I0
I0
I0
I0
I0
I0
I0
I0
I0
I0
I0
I0
I0
I0
I99
I0
I99
I99
I99
I99
I0
I0
I0
I0
I0
I0
I0
I0
I0
I0
I0
I0
I0
I99
I99
I99
I99
I99
I0
I99
I0
I0
I0
I0
I0
I0
I0
I0
I0
I0
I0
I0
I0
I0
I0
I0
I0
I0
I0
I0
I0
I0
I0
I0
I0
I0
I0
I0
I0
I0
I0
I0
I0
I0
I0
I0
I0
I0
I0
I0
I0
I0
I0
I0
I0
I0
I0
I0
I0
I0
I0
I0
I0
I0
I0
I0
I0
I0
I0
I0
I0
I0
I0
I0
I0
I0
I0
I0
I0
I0
I0
I0
I0
I0
I0
I0
I0
I0
I0
I0
I0
I0
I0
I0
I0
I0
I0
I0
I0
I0
I0
I0
I0
I0
I0
I0
I0
I99
I0
I0
I0
I0
I0
I0
I0
I0
I0
I0
I0
I0
I0
I0
I0
I99
I0
I99
I0
I0
I0
I0
I0
I0
I0
I0
I0
I0
I0
I0
I0
I0
I0
I0
I0
I0
I0
I0
I0
I0
I0
I0
I0
I0
I0
I0
I0
I0
I0
I0
I0
I0
I0
I0
I0
I0
I0
I0
I0
I0
I0
I0
I0
I0
I0
I0
I0
I0
I0
I0
I0
I0
I0
I0
I0
I0
I0
I0
I0
I0
I0
I0
I0
I0
I0
I0
I0
I0
I0
I0
I0
I0
I0
I0
I0
I0
I0
I0
I0
I0
I0
I0
I0
I0
I0
I0
I0
I0
I0
I0
I0
I0
I0
I0
I0
I0
I0
I0
I0
I0
I0
I0
I0
I0
I0
I0
I0
I0
I0
I0
I0
I0
I0
I0
I0
I0
I0
I0
I0
I0
I0
I0
I0
I0
I0
I0
I0
I0
I0
I0
I0
I0
I0
I0
I0
I0
I0
I0
I0
I0
I0
I0
I0
I0
I0
I0
I0
I0
I0
I0
I0
I0
I0
I0
I0
I0
I0
I0
I0
I0
I0
I0
I0
I0
I0
I0
I0
I0
I0
I0
I0
I0
I0
I0
I0
I0
I0
I0
I0
I0
I0
I0
I0
I0
I0
I0
I0
I0
I0
I0
I0
I0
I0
I0
I0
I0
I0
I0
I0
I0
I0
I0
I0
I0
I0
I0
I0
I0
I0
I0
I0
I0
I0
I0
I0
I0
I0
I0
I0
I0
I0
I0
I0
I0
I99
I0
I0
I0
I0
I0
I0
I0
I0
I0
I0
I0
I0
I0
I0
I0
I0
I0
I0
I0
I0
I0
I0
I0
I0
I0
I0
I0
I0
I0
I0
I0
I0
I0
I0
I0
I0
I0
I0
I0
I0
I0
I0
I0
I0
I0
I0
I0
I0
I0
I0
I0
I0
I0
I0
I0
I0
I0
I0
I0
I0
I0
I0
I0
I0
I0
I0
I0
I0
I0
I0
I0
I0
I0
I0
I0
I0
I0
I0
I0
I0
I0
I0
I0
I0
I0
I0
I0
I0
I0
I0
I0
I0
I0
I0
I0
I0
I0
I0
I0
I0
I0
I0
I0
I0
I0
I0
I0
I0
I0
I0
I0
I0
I0
I0
I0
I0
I0
I99
I99
I99
I0
I0
I0
I0
I0
I0
I0
I0
I0
I0
I0
I0
I0
I0
I0
I0
I0
I0
I0
I0
I0
I0
I0
I0
I0
I0
I0
I0
I0
I0
I0
I0
I0
I0
I0
I0
I0
I0
I0
I0
I0
I0
I0
I0
I0
I0
I0
I0
I0
I0
I0
I0
I0
I0
I0
I0
I0
I0
I0
I0
I0
I0
I0
I0
I0
I0
I0
I0
I0
I0
I0
I0
I0
I0
I0
I0
I0
I0
I0
I0
I0
I0
I0
I0
I0
I0
I0
I0
I0
I0
I0
I0
I0
I0
I0
I0
I0
I0
I0
I0
I0
I0
I0
I0
I0
I0
I0
I0
I0
I0
I0
I0
I0
I0
I0
I99
I99
I100
I99
I99
I0
I0
I0
I0
I0
I0
I0
I0
I0
I0
I0
I0
I0
I0
I0
I0
I0
I0
I0
I0
I0
I0
I0
I0
I0
I0
I0
I0
I0
I0
I0
I0
I0
I0
I0
I0
I0
I0
I0
I0
I0
I0
I0
I0
I0
I0
I0
I0
I0
I0
I0
I0
I0
I0
I0
I0
I0
I0
I0
I0
I0
I0
I0
I0
I0
I0
I0
I0
I0
I0
I0
I0
I0
I0
I0
I0
I0
I0
I0
I0
I0
I0
I0
I0
I0
I0
I0
I0
I0
I0
I0
I0
I0
I0
I0
I0
I0
I0
I0
I0
I0
I0
I0
I0
I0
I0
I0
I0
I0
I0
I0
I0
I0
I0
I0
I99
I99
I100
I99
I99
I0
I0
I0
I0
I0
I0
I0
I0
I0
I0
I0
I0
I0
I0
I0
I0
I0
I0
I0
I0
I0
I0
I0
I0
I0
I0
I0
I0
I0
I0
I0
I0
I0
I0
I0
I0
I0
I0
I0
I0
I0
I0
I0
I0
I0
I0
I0
I0
I0
I0
I0
I0
I0
I0
I0
I0
I0
I0
I0
I0
I0
I0
I0
I0
I0
I0
I0
I0
I0
I0
I0
I0
I0
I0
I0
I0
I0
I0
I0
I0
I0
I0
I0
I0
I0
I0
I0
I0
I0
I0
I0
I0
I0
I0
I0
I0
I0
I0
I0
I0
I0
I0
I0
I0
I0
I0
I0
I0
I0
I0
I0
I0
I0
I0
I0
I99
I99
I99
I0
I0
I0
I0
I0
I0
I0
I0
I0
I0
I0
I0
I0
I0
I0
I0
I0
I0
I0
I0
I0
I0
I0
I0
I0
I0
I0
I0
I0
I0
I0
I0
I0
I0
I0
I0
I0
I0
I0
I0
I0
I0
I0
I0
I0
I0
I0
I0
I0
I0
I0
I0
I0
I0
I0
I0
I0
I0
I0
I0
I0
I0
I0
I0
I0
I0
I0
I0
I0
I0
I0
I0
I0
I0
I0
I0
I0
I0
I0
I0
I0
I0
I0
I0
I0
I0
I0
I0
I0
I0
I0
I0
I0
I0
I0
I0
I0
I0
I0
I0
I0
I0
I0
I0
I0
I0
I0
I0
I0
I0
I0
I0
I0
I0
I0
I0
I0
I99
I0
I0
I0
I0
I0
I0
I0
I0
I0
I0
I0
I0
I0
I0
I0
I0
I0
I0
I0
I0
I0
I0
I0
I0
I0
I0
I0
I0
I0
I0
I0
I0
I0
I0
I0
I0
I0
I0
I0
I0
I0
I0
I0
I0
I0
I0
I0
I0
I0
I0
I0
I0
I0
I0
I0
I0
I0
I0
I0
I0
I0
I0
I0
I0
I0
I0
I0
I0
I0
I0
I0
I0
I0
I0
I0
I0
I0
I0
I0
I0
I0
I0
I0
I0
I0
I0
I0
I0
I0
I0
I0
I0
I0
I0
I0
I0
I0
I0
I0
I0
I0
I0
I0
I0
I0
I0
I0
I0
I0
I0
I0
I0
I0
I0
I0
I0
I0
I0
I0
I0
I0
I0
I0
I0
I0
I0
I0
I0
I0
I0
I0
I0
I0
I0
I0
I0
I0
I0
I0
I0
I0
I0
I0
I0
I0
I0
I0
I0
I0
I0
I0
I0
I0
I0
I0
I0
I0
I0
I0
I0
I0
I0
I0
I0
I0
I0
I0
I0
I0
I0
I0
I0
I0
I0
I0
I0
I0
I0
I0
I0
I0
I0
I0
I0
I0
I0
I0
I0
I0
I0
I0
I0
I0
I0
I0
I0
I0
I0
I0
I0
I0
I0
I0
I0
I0
I0
I0
I0
I0
I0
I0
I0
I0
I0
I0
I0
I0
I0
I0
I0
I0
I0
I0
I0
I0
I0
I0
I0
I0
I0
I0
I0
I0
I0
I0
I0
I0
I0
I0
I0
I0
I0
I0
I0
I0
I0
I0
I0
I0
I0
I0
I0
I0
I0
I0
I0
I0
I0
I0
I0
I0
I0
I0
I0
I0
I0
I0
I0
I0
I0
I0
I0
I0
I0
I0
I0
I0
I0
I0
I0
I0
I0
I0
I0
I0
I0
I0
I0
I0
I0
I0
I0
I0
I0
I0
I0
I0
I0
I0
I0
I0
I0
I0
I0
I0
I0
I0
I0
I0
I0
I0
I0
I0
I0
I0
I0
I0
I0
I0
I0
I0
I0
I0
I0
I0
I0
I0
I0
I0
I0
I0
I0
I0
I0
I0
I0
I0
I0
I0
I0
I0
I0
I0
I0
I0
I0
I0
I0
I0
I0
I0
I0
I0
I0
I0
I0
I0
I0
I0
I0
I0
I0
I0
I0
I0
I0
I0
I0
I0
I0
I0
I0
I0
I0
I0
I0
I0
I0
I0
I0
I0
I0
I0
I0
I0
I0
I0
I0
I0
I0
I0
I0
I0
I0
I0
I0
I0
I0
I0
I0
I0
I0
I0
I0
I0
I0
I0
I0
I0
I0
I0
I0
I0
I0
I0
I0
I0
I0
I0
I0
I0
I0
I0
I0
I0
I0
I0
I0
I0
I0
I0
I0
I0
I0
I0
I0
I0
I0
I0
I0
I0
I0
I0
I0
I0
I0
I0
I0
I0
I0
I0
I0
I0
I0
I0
I0
I0
I0
I0
I0
I0
I0
I0
I0
I0
I0
I0
I0
I0
I0
I0
I0
I0
I0
I0
I0
I0
I0
I0
I0
I0
I0
I0
I0
I0
I0
I0
I0
I0
I0
I0
I0
I0
I0
I0
I0
I0
I0
I0
I0
I0
I0
I0
I0
I0
I0
I0
I0
I0
I0
I0
I0
I0
I0
I0
I0
I0
I0
I0
I0
I0
I0
I0
I0
I0
I0
I0
I0
I0
I0
I0
I0
I0
I0
I0
I0
I0
I0
I0
I0
I0
I0
I0
I0
I0
I0
I0
I0
I0
I0
I0
I0
I0
I0
I0
I0
I0
I0
I0
I0
I0
I0
I0
I0
I0
I0
I0
I0
I0
I0
I0
I0
I0
I0
I0
I0
I0
I0
I0
I0
I0
I0
I0
I0
I0
I0
I0
I0
I0
I0
I0
I0
I0
I0
I0
I0
I0
I0
I0
I0
I0
I0
I0
I0
I0
I0
I0
I0
I0
I0
I0
I0
I0
I0
I0
I0
I0
I0
I0
I0
I0
I0
I0
I0
I0
I0
I0
I0
I0
I0
I0
I0
I0
I0
I0
I0
I0
I0
I0
I0
I0
I0
I0
I0
I0
I0
I0
I0
I0
I0
I0
I0
I0
I0
I0
I0
I0
I0
I0
I0
I0
I0
I0
I0
I0
I0
I0
I0
I0
I0
I0
I0
I0
I0
I0
I0
I0
I0
I0
I0
I0
I0
I0
I0
I0
I0
I0
I0
I0
I0
I0
I0
I0
I0
I0
I0
I0
I0
I0
I0
I0
I0
I0
I0
I0
I0
I0
I0
I0
I0
I0
I0
I0
I0
I0
I0
I0
I0
I0
I0
I0
I0
I0
I0
I0
I0
I0
I0
I0
I0
I0
I0
I0
I0
I0
I0
I0
I0
I0
I0
I0
I0
I0
I0
I0
I0
I0
I0
I0
I0
I0
I0
I0
I0
I0
I0
I0
I0
I0
I0
I0
I0
I0
I0
I0
I0
I0
I0
I0
I0
I0
I0
I0
I0
I0
I0
I0
I0
I0
I0
I0
I0
I0
I0
I0
I0
I0
I0
I0
I0
I0
I0
I0
I0
I0
I0
I0
I0
I0
I0
I0
I0
I0
I0
I0
I0
I0
I0
I0
I0
I0
I0
I0
I0
I0
I0
I0
I0
I0
I0
I0
I0
I0
I0
I0
I0
I0
I0
I0
I0
I0
I0
I0
I0
I0
I0
I0
I0
I0
I0
I0
I0
I0
I0
I0
I0
I0
I0
I0
I0
I0
I0
I0
I0
I0
I0
I0
I0
I0
I0
I0
I0
I0
I0
I0
I0
I0
I0
I0
I0
I0
I0
I0
I0
I0
I0
I0
I0
I0
I0
I0
I0
I0
I0
I0
I0
I0
I0
I0
I0
I0
I0
I0
I0
I0
I0
I0
I0
I0
I0
I0
I0
I0
I0
I0
I0
I0
I0
I0
I0
I0
I0
I0
I0
I0
I0
I0
I0
I0
I0
I0
I0
I0
I0
I0
I0
I0
I0
I0
I0
I0
I0
I0
I0
I0
I0
I0
I0
I0
I0
I0
I0
I0
I0
I0
I0
I0
I0
I0
I0
I0
I0
I0
I0
I0
I0
I0
I0
I0
I0
I0
I0
I0
I0
I0
I0
I0
I0
I0
I0
I0
I0
I0
I0
I0
I0
I0
I0
I0
I0
I0
I0
I0
I0
I0
I0
I0
I0
I0
I0
I0
I0
I0
I0
I0
I0
I0
I0
I0
I0
I0
I0
I0
I0
I0
I0
I0
I0
I0
I0
I0
I0
I0
I0
I0
I0
I0
I0
I0
I0
I0
I0
I0
I0
I0
I0
I0
I0
I0
I0
I0
I0
I0
I0
I0
I0
I0
I0
I0
I0
I0
I0
I0
I0
I0
I0
I0
I0
I0
I0
I0
I0
I0
I0
I0
I0
I0
I0
I0
I0
I0
I0
I0
I0
I0
I0
I0
I0
I0
I0
I0
I0
I0
I0
I0
I0
I0
I0
I0
I0
I0
I0
I0
I0
I0
I0
I0
I0
I0
I0
I0
I0
I0
I0
I0
I0
I0
I0
I0
I0
I0
I0
I0
I0
I0
I0
I0
I0
I0
I0
I0
I0
I0
I0
I0
I0
I0
I0
I0
I0
I0
I0
I0
I0
I0
I0
I0
I0
I0
I0
I0
I0
I0
I0
I0
I0
I0
I0
I0
I0
I0
I0
I0
I0
I0
I0
I0
I0
I0
I0
I0
I0
I0
I0
I0
I0
I0
I0
I0
I0
I0
I0
I0
I0
I0
I0
I0
I0
I0
I0
I0
I0
I0
I0
I0
I0
I0
I0
I0
I0
I0
I0
I0
I0
I0
I0
I0
I0
I0
I0
I0
I0
I0
I0
I0
I0
I0
I0
I0
I0
I0
I0
I0
I0
I0
I0
I0
I0
I0
I0
I0
I0
I0
I0
I0
I0
I0
I0
I0
I0
I0
I0
I0
I0
I0
I0
I0
I0
I0
I0
I0
I0
I0
I0
I0
I0
I0
I0
I0
I0
I0
I0
I0
I0
I0
I0
I0
I0
I0
I0
I0
I0
I0
I0
I0
I0
I0
I0
I0
I0
I0
I0
I0
I0
I0
I0
I0
I0
I0
I0
I0
I0
I0
I0
I0
I0
I0
I0
I0
I0
I0
I0
I0
I0
I0
I0
I0
I0
I0
I0
I0
I0
I0
I0
I0
I0
I0
I0
I0
I0
I0
I0
I0
I0
I0
I0
I0
I0
I0
I0
I0
I0
I0
I0
I0
I0
I0
I0
I0
I0
I0
I0
I0
I0
I0
I0
I0
I0
I0
I0
I0
I0
I0
I0
I0
I0
I0
I0
I0
I0
I0
I0
I0
I0
I0
I0
I0
I0
I0
I0
I0
I0
I0
I0
I0
I0
I0
I0
I0
I0
I0
I0
I0
I0
I0
I0
I0
I0
I0
I0
I0
I0
I0
I0
I0
I0
I0
I0
I0
I0
I0
I0
I0
I0
I0
I0
I0
I0
I0
I0
I0
I0
I0
I0
I0
I0
I0
I0
I0
I0
I0
I0
I0
I0
I0
I0
I0
I0
I0
I0
I0
I0
I0
I0
I0
I0
I0
I0
I0
I0
I0
I0
I0
I0
I0
I0
I0
I0
I0
I0
I0
I0
I0
I0
I0
I0
I0
I0
I0
I0
I0
I0
I0
I0
I0
I0
I0
I0
I0
I0
I0
I0
I0
I0
I0
I0
I0
I0
I0
I0
I0
I0
I0
I0
I0
I0
I0
I0
I0
I0
I0
I0
I0
I0
I0
I0
I0
I0
I0
I0
I0
I0
I0
I0
I0
I0
I0
I0
I0
I0
I0
I0
I0
I0
I0
I0
I0
I0
I0
I0
I0
I0
I0
I0
I0
I0
I0
I0
I0
I0
I0
I0
I0
I0
I0
I0
I0
I0
I0
I0
I0
I0
I0
I0
I0
I0
I0
I0
I0
I0
I0
I0
I0
I0
I0
I0
I0
I0
I0
I0
I0
I0
I0
I0
I0
I0
I0
I0
I0
I0
I0
I0
I0
I0
I0
I0
I0
I0
I0
I0
I0
I0
I0
I0
I0
I0
I0
I0
I0
I0
I0
I0
I0
I0
I0
I0
I0
I0
I0
I0
I0
I0
I0
I0
I0
I0
I0
I0
I0
I0
I0
I0
I0
I0
I0
I0
I0
I0
I0
I0
I0
I0
I0
I0
I0
I0
I0
I0
I0
I0
I0
I0
I0
I0
I0
I0
I0
I0
I0
I0
I0
I0
I0
I0
I0
I0
I0
I0
I0
I0
I0
I0
I0
I0
I0
I0
I0
I0
I0
I0
I0
I0
I0
I0
I0
I0
I0
I0
I0
I0
I0
I0
I0
I0
I0
I0
I0
I0
I0
I0
I0
I0
I0
I0
I0
I0
I0
I0
I0
I0
I0
I0
I0
I0
I0
I0
I0
I0
I0
I0
I0
I0
I0
I0
I0
I0
I0
I0
I0
I0
I0
I0
I0
I0
I0
I0
I0
I0
I0
I0
I0
I0
I0
I0
I0
I0
I0
I0
I0
I0
I0
I0
I0
I0
I0
I0
I0
I0
I0
I0
I0
I0
I0
I0
I0
I0
I0
I0
I0
I0
I0
I0
I0
I0
I0
I0
I0
I0
I0
I0
I0
I0
I0
I0
I0
I0
I0
I0
I0
I0
I0
I0
I0
I0
I0
I0
I0
I0
I0
I0
I0
I0
I0
I0
I0
I0
I0
I0
I0
I0
I0
I0
I0
I0
I0
I0
I0
I0
I0
I0
I0
I0
I0
I0
I0
I0
I0
I0
I0
I0
I0
I0
I0
I0
I0
I0
I0
I0
I0
I0
I0
I0
I0
I0
I0
I0
I0
I0
I0
I0
I0
I0
I0
I0
I0
I0
I0
I0
I0
I0
I0
I0
I0
I0
I0
I0
I0
I0
I0
I0
I0
I0
I0
I0
I0
I0
I0
I0
I0
I0
I0
I0
I0
I0
I0
I0
I0
I0
I0
I0
I0
I0
I0
I0
I0
I0
I0
I0
I0
I0
I0
I0
I0
I0
I0
I0
I0
I0
I0
I0
I0
I0
I0
I0
I0
I0
I0
I0
I0
I0
I0
I0
I0
I0
I0
I0
I0
I0
I0
I0
I0
I0
I0
I0
I0
I0
I0
I0
I0
I0
I0
I0
I0
I0
I0
I0
I0
I0
I0
I0
I0
I0
I0
I0
I0
I0
I0
I0
I0
I0
I0
I0
I0
I0
I0
I0
I0
I0
I0
I0
I0
I0
I0
I0
I0
I0
I0
I0
I0
I0
I0
I0
I0
I0
I0
I0
I0
I0
I0
I0
I0
I0
I0
I0
I0
I0
I0
I0
I0
I0
I0
I0
I0
I0
I0
I0
I0
I0
I0
I0
I0
I0
I0
I0
I0
I0
I0
I0
I0
I0
I0
I0
I0
I0
I0
I0
I0
I0
I0
I0
I0
I0
I0
I0
I0
I0
I0
I0
I0
I0
I0
I0
I0
I0
I0
I0
I0
I0
I0
I0
I0
I0
I0
I0
I0
I0
I0
I0
I0
I0
I0
I0
I0
I0
I0
I0
I0
I0
I0
I0
I0
I0
I0
I0
I0
I0
I0
I0
I0
I0
I0
I0
I0
I0
I0
I0
I0
I0
I0
I0
I0
I0
I0
I0
I0
I0
I0
I0
I0
I0
I0
I0
I0
I0
I0
I0
I0
I0
I0
I0
I0
I0
I0
I0
I0
I0
I0
I0
I0
I0
I0
I0
I0
I0
I0
I0
I0
I0
I0
I0
I0
I0
I0
I0
I0
I0
I0
I0
I0
I0
I0
I0
I0
I0
I0
I0
I0
I0
I0
I0
I0
I0
I0
I0
I0
I0
I0
I0
I0
I0
I0
I0
I0
I0
I0
I0
I0
I0
I0
I0
I0
I0
I0
I0
I0
I0
I0
I0
I0
I0
I0
I0
I0
I0
I0
I0
I0
I0
I0
I0
I0
I0
I0
I0
I0
I0
I0
I0
I0
I0
I0
I0
I0
I0
I0
I0
I0
I0
I0
I0
I0
I0
I0
I0
I0
I0
I0
I0
I0
I0
I0
I0
I0
I0
I0
I0
I0
I0
I0
I0
I0
I0
I0
I0
I0
I0
I0
I0
I0
I0
I0
I0
I0
I0
I0
I0
I0
I0
I0
I0
I0
I0
I0
I0
I0
I0
I0
I0
I0
I0
I0
I0
I0
I0
I0
I0
I0
I0
I0
I0
I0
I0
I0
I0
I0
I0
I0
I0
I0
I0
I0
I0
I0
I0
I0
I0
I0
I0
I0
I0
I0
I0
I0
I0
I0
I0
I0
I0
I0
I0
I0
I0
I0
I0
I0
I0
I0
I0
I0
I0
I0
I0
I0
I0
I0
I0
I0
I0
I0
I0
I0
I0
I0
I0
I0
I0
I0
I0
I0
I0
I0
I0
I0
I0
I0
I0
I0
I0
I0
I0
I0
I0
I0
I0
I0
I0
I0
I0
I0
I0
I0
I0
I0
I0
I0
I0
I0
I0
I0
I0
I0
I0
I0
I0
I0
I0
I0
I0
I0
I0
I0
I0
I0
I0
I0
I0
I0
I0
I0
I0
I0
I0
I0
I0
I0
I0
I0
I0
I0
I0
I0
I0
I0
I0
I0
I0
I0
I0
I0
I0
I0
I0
I0
I0
I0
I0
I0
I0
I0
I0
I0
I0
I0
I0
I0
I0
I0
I0
I0
I0
I0
I0
I0
I0
I0
I0
I0
I0
I0
I0
I0
I0
I0
I0
I0
I0
I0
I0
I0
I0
I0
I0
I0
I0
I0
I0
I0
I0
I0
I0
I0
I0
I0
I0
I0
I0
I0
I0
I0
I0
I0
I0
I0
I0
I0
I0
I0
I0
I0
I0
I0
I0
I0
I0
I0
I0
I0
I0
I0
I0
I0
I0
I0
I0
I0
I0
I0
I0
I0
I0
I0
I0
I0
I0
I0
I0
I0
I0
I0
I0
I0
I0
I0
I0
I0
I0
I0
I0
I0
I0
I0
I0
I0
I0
I0
I0
I0
I0
I0
I0
I0
I0
I0
I0
I0
I0
I0
I0
I0
I0
I0
I0
I0
I0
I0
I0
I0
I0
I0
I0
I0
I0
I0
I0
I0
I0
I0
I0
I0
I0
I0
I0
I0
I0
I0
I0
I0
I0
I0
I0
I0
I0
I0
I0
I0
I0
I0
I0
I0
I0
I0
I0
I0
I0
I0
I0
I0
I0
I0
I0
I0
I0
I0
I0
I0
I0
I0
I0
I0
I0
I0
I0
I0
I0
I0
I0
I0
I0
I0
I0
I0
I0
I0
I0
I0
I0
I0
I0
I0
I0
I0
I0
I0
I0
I0
I0
I0
I0
I0
I0
I0
I0
I0
I0
I0
I0
I0
I0
I0
I0
I0
I0
I0
I0
I0
I0
I0
I0
I0
I0
I0
I0
I0
I0
I0
I0
I0
I0
I0
I0
I0
I0
I0
I0
I0
I0
I0
I0
I0
I0
I0
I0
I0
I0
I0
I0
I0
I0
I0
I0
I0
I0
I0
I0
I0
I0
I0
I0
I0
I0
I0
I0
I0
I0
I0
I0
I0
I0
I0
I0
I0
I0
I0
I0
I0
I0
I0
I0
I0
I0
I0
I0
I0
I0
I0
I0
I0
tp27
ab.